; Listing generated by Microsoft (R) Optimizing Compiler Version 16.00.40219.01 

	TITLE	D:\Workspace\Libusb++\src\libusbimpl.cpp
	.686P
	.XMM
	include listing.inc
	.model	flat

INCLUDELIB MSVCRTD
INCLUDELIB OLDNAMES

PUBLIC	?value@?$integral_constant@_N$0A@@tr1@std@@2_NB	; std::tr1::integral_constant<bool,0>::value
PUBLIC	?value@?$integral_constant@_N$00@tr1@std@@2_NB	; std::tr1::integral_constant<bool,1>::value
PUBLIC	?value@?$integral_constant@I$0A@@tr1@std@@2IB	; std::tr1::integral_constant<unsigned int,0>::value
PUBLIC	?_Rank@?$_Arithmetic_traits@_N@std@@2HB		; std::_Arithmetic_traits<bool>::_Rank
PUBLIC	?_Rank@?$_Arithmetic_traits@D@std@@2HB		; std::_Arithmetic_traits<char>::_Rank
PUBLIC	?_Rank@?$_Arithmetic_traits@C@std@@2HB		; std::_Arithmetic_traits<signed char>::_Rank
PUBLIC	?_Rank@?$_Arithmetic_traits@E@std@@2HB		; std::_Arithmetic_traits<unsigned char>::_Rank
PUBLIC	?_Rank@?$_Arithmetic_traits@F@std@@2HB		; std::_Arithmetic_traits<short>::_Rank
PUBLIC	?_Rank@?$_Arithmetic_traits@G@std@@2HB		; std::_Arithmetic_traits<unsigned short>::_Rank
PUBLIC	?_Rank@?$_Arithmetic_traits@H@std@@2HB		; std::_Arithmetic_traits<int>::_Rank
PUBLIC	?_Rank@?$_Arithmetic_traits@I@std@@2HB		; std::_Arithmetic_traits<unsigned int>::_Rank
PUBLIC	?_Rank@?$_Arithmetic_traits@J@std@@2HB		; std::_Arithmetic_traits<long>::_Rank
PUBLIC	?_Rank@?$_Arithmetic_traits@K@std@@2HB		; std::_Arithmetic_traits<unsigned long>::_Rank
PUBLIC	?_Rank@?$_Arithmetic_traits@_J@std@@2HB		; std::_Arithmetic_traits<__int64>::_Rank
PUBLIC	?_Rank@?$_Arithmetic_traits@_K@std@@2HB		; std::_Arithmetic_traits<unsigned __int64>::_Rank
PUBLIC	?_Rank@?$_Arithmetic_traits@M@std@@2HB		; std::_Arithmetic_traits<float>::_Rank
PUBLIC	?_Rank@?$_Arithmetic_traits@N@std@@2HB		; std::_Arithmetic_traits<double>::_Rank
PUBLIC	?_Rank@?$_Arithmetic_traits@O@std@@2HB		; std::_Arithmetic_traits<long double>::_Rank
;	COMDAT ?_Rank@?$_Arithmetic_traits@O@std@@2HB
CONST	SEGMENT
?_Rank@?$_Arithmetic_traits@O@std@@2HB DD 09H		; std::_Arithmetic_traits<long double>::_Rank
CONST	ENDS
;	COMDAT ?_Rank@?$_Arithmetic_traits@N@std@@2HB
CONST	SEGMENT
?_Rank@?$_Arithmetic_traits@N@std@@2HB DD 08H		; std::_Arithmetic_traits<double>::_Rank
CONST	ENDS
;	COMDAT ?_Rank@?$_Arithmetic_traits@M@std@@2HB
CONST	SEGMENT
?_Rank@?$_Arithmetic_traits@M@std@@2HB DD 07H		; std::_Arithmetic_traits<float>::_Rank
CONST	ENDS
;	COMDAT ?_Rank@?$_Arithmetic_traits@_K@std@@2HB
CONST	SEGMENT
?_Rank@?$_Arithmetic_traits@_K@std@@2HB DD 06H		; std::_Arithmetic_traits<unsigned __int64>::_Rank
CONST	ENDS
;	COMDAT ?_Rank@?$_Arithmetic_traits@_J@std@@2HB
CONST	SEGMENT
?_Rank@?$_Arithmetic_traits@_J@std@@2HB DD 06H		; std::_Arithmetic_traits<__int64>::_Rank
CONST	ENDS
;	COMDAT ?_Rank@?$_Arithmetic_traits@K@std@@2HB
CONST	SEGMENT
?_Rank@?$_Arithmetic_traits@K@std@@2HB DD 05H		; std::_Arithmetic_traits<unsigned long>::_Rank
CONST	ENDS
;	COMDAT ?_Rank@?$_Arithmetic_traits@J@std@@2HB
CONST	SEGMENT
?_Rank@?$_Arithmetic_traits@J@std@@2HB DD 05H		; std::_Arithmetic_traits<long>::_Rank
CONST	ENDS
;	COMDAT ?_Rank@?$_Arithmetic_traits@I@std@@2HB
CONST	SEGMENT
?_Rank@?$_Arithmetic_traits@I@std@@2HB DD 04H		; std::_Arithmetic_traits<unsigned int>::_Rank
CONST	ENDS
;	COMDAT ?_Rank@?$_Arithmetic_traits@H@std@@2HB
CONST	SEGMENT
?_Rank@?$_Arithmetic_traits@H@std@@2HB DD 04H		; std::_Arithmetic_traits<int>::_Rank
CONST	ENDS
;	COMDAT ?_Rank@?$_Arithmetic_traits@G@std@@2HB
CONST	SEGMENT
?_Rank@?$_Arithmetic_traits@G@std@@2HB DD 03H		; std::_Arithmetic_traits<unsigned short>::_Rank
CONST	ENDS
;	COMDAT ?_Rank@?$_Arithmetic_traits@F@std@@2HB
CONST	SEGMENT
?_Rank@?$_Arithmetic_traits@F@std@@2HB DD 03H		; std::_Arithmetic_traits<short>::_Rank
CONST	ENDS
;	COMDAT ?_Rank@?$_Arithmetic_traits@E@std@@2HB
CONST	SEGMENT
?_Rank@?$_Arithmetic_traits@E@std@@2HB DD 02H		; std::_Arithmetic_traits<unsigned char>::_Rank
CONST	ENDS
;	COMDAT ?_Rank@?$_Arithmetic_traits@C@std@@2HB
CONST	SEGMENT
?_Rank@?$_Arithmetic_traits@C@std@@2HB DD 02H		; std::_Arithmetic_traits<signed char>::_Rank
CONST	ENDS
;	COMDAT ?_Rank@?$_Arithmetic_traits@D@std@@2HB
CONST	SEGMENT
?_Rank@?$_Arithmetic_traits@D@std@@2HB DD 02H		; std::_Arithmetic_traits<char>::_Rank
CONST	ENDS
;	COMDAT ?_Rank@?$_Arithmetic_traits@_N@std@@2HB
CONST	SEGMENT
?_Rank@?$_Arithmetic_traits@_N@std@@2HB DD 01H		; std::_Arithmetic_traits<bool>::_Rank
CONST	ENDS
;	COMDAT ?value@?$integral_constant@I$0A@@tr1@std@@2IB
CONST	SEGMENT
?value@?$integral_constant@I$0A@@tr1@std@@2IB DD 00H	; std::tr1::integral_constant<unsigned int,0>::value
CONST	ENDS
;	COMDAT ?value@?$integral_constant@_N$00@tr1@std@@2_NB
CONST	SEGMENT
?value@?$integral_constant@_N$00@tr1@std@@2_NB DB 01H	; std::tr1::integral_constant<bool,1>::value
CONST	ENDS
;	COMDAT ?value@?$integral_constant@_N$0A@@tr1@std@@2_NB
CONST	SEGMENT
?value@?$integral_constant@_N$0A@@tr1@std@@2_NB DB 00H	; std::tr1::integral_constant<bool,0>::value
CONST	ENDS
PUBLIC	??$reset@Ulibusb_context@@VContextDeleter@@@?$shared_ptr@Ulibusb_context@@@tr1@std@@QAEXPAUlibusb_context@@VContextDeleter@@@Z ; std::tr1::shared_ptr<libusb_context>::reset<libusb_context,ContextDeleter>
PUBLIC	__TI1?AVexception@std@@
PUBLIC	??_C@_0BG@JIHFECBL@libusb_init?$CI?$CJ?5failed?4?$AA@ ; `string'
PUBLIC	??0LibUSBImpl@LibUSB@@QAE@XZ			; LibUSB::LibUSBImpl::LibUSBImpl
PUBLIC	__CTA1?AVexception@std@@
PUBLIC	__CT??_R0?AVexception@std@@@8??0exception@std@@QAE@ABV01@@Z12
PUBLIC	??_R0?AVexception@std@@@8			; std::exception `RTTI Type Descriptor'
EXTRN	__imp_??0exception@std@@QAE@ABQBD@Z:PROC
EXTRN	_libusb_init@4:PROC
EXTRN	@_RTC_CheckStackVars@8:PROC
EXTRN	__RTC_CheckEsp:PROC
EXTRN	__RTC_Shutdown:PROC
EXTRN	__RTC_InitBase:PROC
EXTRN	__CxxThrowException@8:PROC
EXTRN	??1exception@std@@UAE@XZ:PROC			; std::exception::~exception
EXTRN	??_7type_info@@6B@:QWORD			; type_info::`vftable'
EXTRN	??0exception@std@@QAE@ABV01@@Z:PROC		; std::exception::exception
;	COMDAT ??_R0?AVexception@std@@@8
; File d:\workspace\libusb++\src\libusbimpl.cpp
_DATA	SEGMENT
??_R0?AVexception@std@@@8 DD FLAT:??_7type_info@@6B@	; std::exception `RTTI Type Descriptor'
	DD	00H
	DB	'.?AVexception@std@@', 00H
_DATA	ENDS
;	COMDAT __CT??_R0?AVexception@std@@@8??0exception@std@@QAE@ABV01@@Z12
xdata$x	SEGMENT
__CT??_R0?AVexception@std@@@8??0exception@std@@QAE@ABV01@@Z12 DD 00H
	DD	FLAT:??_R0?AVexception@std@@@8
	DD	00H
	DD	0ffffffffH
	ORG $+4
	DD	0cH
	DD	FLAT:??0exception@std@@QAE@ABV01@@Z
xdata$x	ENDS
;	COMDAT __CTA1?AVexception@std@@
xdata$x	SEGMENT
__CTA1?AVexception@std@@ DD 01H
	DD	FLAT:__CT??_R0?AVexception@std@@@8??0exception@std@@QAE@ABV01@@Z12
xdata$x	ENDS
;	COMDAT __TI1?AVexception@std@@
xdata$x	SEGMENT
__TI1?AVexception@std@@ DD 00H
	DD	FLAT:??1exception@std@@UAE@XZ
	DD	00H
	DD	FLAT:__CTA1?AVexception@std@@
xdata$x	ENDS
;	COMDAT ??_C@_0BG@JIHFECBL@libusb_init?$CI?$CJ?5failed?4?$AA@
CONST	SEGMENT
??_C@_0BG@JIHFECBL@libusb_init?$CI?$CJ?5failed?4?$AA@ DB 'libusb_init() f'
	DB	'ailed.', 00H				; `string'
CONST	ENDS
;	COMDAT rtc$TMZ
rtc$TMZ	SEGMENT
__RTC_Shutdown.rtc$TMZ DD FLAT:__RTC_Shutdown
rtc$TMZ	ENDS
;	COMDAT rtc$IMZ
rtc$IMZ	SEGMENT
__RTC_InitBase.rtc$IMZ DD FLAT:__RTC_InitBase
; Function compile flags: /Odtp /RTCsu /ZI
rtc$IMZ	ENDS
;	COMDAT ??0LibUSBImpl@LibUSB@@QAE@XZ
_TEXT	SEGMENT
$T82649 = -268						; size = 12
$T82650 = -248						; size = 4
$T82652 = -233						; size = 1
_Result$ = -32						; size = 4
_pContext$ = -20					; size = 4
_this$ = -8						; size = 4
??0LibUSBImpl@LibUSB@@QAE@XZ PROC			; LibUSB::LibUSBImpl::LibUSBImpl, COMDAT
; _this$ = ecx
; Line 14
	push	ebp
	mov	ebp, esp
	sub	esp, 272				; 00000110H
	push	ebx
	push	esi
	push	edi
	push	ecx
	lea	edi, DWORD PTR [ebp-272]
	mov	ecx, 68					; 00000044H
	mov	eax, -858993460				; ccccccccH
	rep stosd
	pop	ecx
	mov	DWORD PTR _this$[ebp], ecx
; Line 16
	mov	DWORD PTR _pContext$[ebp], 0
; Line 17
	lea	eax, DWORD PTR _pContext$[ebp]
	push	eax
	call	_libusb_init@4
	mov	DWORD PTR _Result$[ebp], eax
; Line 18
	cmp	DWORD PTR _Result$[ebp], 0
	je	SHORT $LN1@LibUSBImpl
; Line 20
	mov	DWORD PTR $T82650[ebp], OFFSET ??_C@_0BG@JIHFECBL@libusb_init?$CI?$CJ?5failed?4?$AA@
	mov	esi, esp
	lea	eax, DWORD PTR $T82650[ebp]
	push	eax
	lea	ecx, DWORD PTR $T82649[ebp]
	call	DWORD PTR __imp_??0exception@std@@QAE@ABQBD@Z
	cmp	esi, esp
	call	__RTC_CheckEsp
	push	OFFSET __TI1?AVexception@std@@
	lea	ecx, DWORD PTR $T82649[ebp]
	push	ecx
	call	__CxxThrowException@8
$LN1@LibUSBImpl:
; Line 24
	xor	eax, eax
	mov	BYTE PTR $T82652[ebp], al
	movzx	ecx, BYTE PTR $T82652[ebp]
	push	ecx
	mov	edx, DWORD PTR _pContext$[ebp]
	push	edx
	mov	ecx, OFFSET ?pLibusb_context@LibUSBImpl@LibUSB@@2V?$shared_ptr@Ulibusb_context@@@tr1@std@@A ; LibUSB::LibUSBImpl::pLibusb_context
	call	??$reset@Ulibusb_context@@VContextDeleter@@@?$shared_ptr@Ulibusb_context@@@tr1@std@@QAEXPAUlibusb_context@@VContextDeleter@@@Z ; std::tr1::shared_ptr<libusb_context>::reset<libusb_context,ContextDeleter>
; Line 27
	mov	eax, DWORD PTR _this$[ebp]
$LN3@LibUSBImpl:
	push	edx
	mov	ecx, ebp
	push	eax
	lea	edx, DWORD PTR $LN6@LibUSBImpl
	call	@_RTC_CheckStackVars@8
	pop	eax
	pop	edx
	pop	edi
	pop	esi
	pop	ebx
	add	esp, 272				; 00000110H
	cmp	ebp, esp
	call	__RTC_CheckEsp
	mov	esp, ebp
	pop	ebp
	ret	0
	npad	3
$LN6@LibUSBImpl:
	DD	1
	DD	$LN5@LibUSBImpl
$LN5@LibUSBImpl:
	DD	-20					; ffffffecH
	DD	4
	DD	$LN4@LibUSBImpl
$LN4@LibUSBImpl:
	DB	112					; 00000070H
	DB	67					; 00000043H
	DB	111					; 0000006fH
	DB	110					; 0000006eH
	DB	116					; 00000074H
	DB	101					; 00000065H
	DB	120					; 00000078H
	DB	116					; 00000074H
	DB	0
??0LibUSBImpl@LibUSB@@QAE@XZ ENDP			; LibUSB::LibUSBImpl::LibUSBImpl
_TEXT	ENDS
PUBLIC	??1LibUSBImpl@LibUSB@@QAE@XZ			; LibUSB::LibUSBImpl::~LibUSBImpl
; Function compile flags: /Odtp /RTCsu /ZI
;	COMDAT ??1LibUSBImpl@LibUSB@@QAE@XZ
_TEXT	SEGMENT
_this$ = -8						; size = 4
??1LibUSBImpl@LibUSB@@QAE@XZ PROC			; LibUSB::LibUSBImpl::~LibUSBImpl, COMDAT
; _this$ = ecx
; Line 30
	push	ebp
	mov	ebp, esp
	sub	esp, 204				; 000000ccH
	push	ebx
	push	esi
	push	edi
	push	ecx
	lea	edi, DWORD PTR [ebp-204]
	mov	ecx, 51					; 00000033H
	mov	eax, -858993460				; ccccccccH
	rep stosd
	pop	ecx
	mov	DWORD PTR _this$[ebp], ecx
; Line 32
	pop	edi
	pop	esi
	pop	ebx
	mov	esp, ebp
	pop	ebp
	ret	0
??1LibUSBImpl@LibUSB@@QAE@XZ ENDP			; LibUSB::LibUSBImpl::~LibUSBImpl
_TEXT	ENDS
PUBLIC	??1?$shared_ptr@Ulibusb_context@@@tr1@std@@QAE@XZ ; std::tr1::shared_ptr<libusb_context>::~shared_ptr<libusb_context>
PUBLIC	?swap@?$shared_ptr@Ulibusb_context@@@tr1@std@@QAEXAAV123@@Z ; std::tr1::shared_ptr<libusb_context>::swap
PUBLIC	??$?0Ulibusb_context@@VContextDeleter@@@?$shared_ptr@Ulibusb_context@@@tr1@std@@QAE@PAUlibusb_context@@VContextDeleter@@@Z ; std::tr1::shared_ptr<libusb_context>::shared_ptr<libusb_context><libusb_context,ContextDeleter>
EXTRN	___security_cookie:DWORD
EXTRN	___CxxFrameHandler3:PROC
EXTRN	@__security_check_cookie@4:PROC
;	COMDAT xdata$x
; File c:\program files (x86)\microsoft visual studio 10.0\vc\include\memory
xdata$x	SEGMENT
__unwindtable$??$reset@Ulibusb_context@@VContextDeleter@@@?$shared_ptr@Ulibusb_context@@@tr1@std@@QAEXPAUlibusb_context@@VContextDeleter@@@Z DD 0ffffffffH
	DD	FLAT:__unwindfunclet$??$reset@Ulibusb_context@@VContextDeleter@@@?$shared_ptr@Ulibusb_context@@@tr1@std@@QAEXPAUlibusb_context@@VContextDeleter@@@Z$0
__ehfuncinfo$??$reset@Ulibusb_context@@VContextDeleter@@@?$shared_ptr@Ulibusb_context@@@tr1@std@@QAEXPAUlibusb_context@@VContextDeleter@@@Z DD 019930522H
	DD	01H
	DD	FLAT:__unwindtable$??$reset@Ulibusb_context@@VContextDeleter@@@?$shared_ptr@Ulibusb_context@@@tr1@std@@QAEXPAUlibusb_context@@VContextDeleter@@@Z
	DD	2 DUP(00H)
	DD	2 DUP(00H)
	DD	00H
	DD	01H
; Function compile flags: /Odtp /RTCsu /ZI
xdata$x	ENDS
;	COMDAT ??$reset@Ulibusb_context@@VContextDeleter@@@?$shared_ptr@Ulibusb_context@@@tr1@std@@QAEXPAUlibusb_context@@VContextDeleter@@@Z
_TEXT	SEGMENT
tv73 = -240						; size = 4
tv74 = -236						; size = 4
$T82670 = -228						; size = 8
_this$ = -20						; size = 4
__$EHRec$ = -12						; size = 12
__Px$ = 8						; size = 4
__Dt$ = 12						; size = 1
??$reset@Ulibusb_context@@VContextDeleter@@@?$shared_ptr@Ulibusb_context@@@tr1@std@@QAEXPAUlibusb_context@@VContextDeleter@@@Z PROC ; std::tr1::shared_ptr<libusb_context>::reset<libusb_context,ContextDeleter>, COMDAT
; _this$ = ecx
; Line 1612
	push	ebp
	mov	ebp, esp
	push	-1
	push	__ehhandler$??$reset@Ulibusb_context@@VContextDeleter@@@?$shared_ptr@Ulibusb_context@@@tr1@std@@QAEXPAUlibusb_context@@VContextDeleter@@@Z
	mov	eax, DWORD PTR fs:0
	push	eax
	sub	esp, 228				; 000000e4H
	push	ebx
	push	esi
	push	edi
	push	ecx
	lea	edi, DWORD PTR [ebp-240]
	mov	ecx, 57					; 00000039H
	mov	eax, -858993460				; ccccccccH
	rep stosd
	pop	ecx
	mov	eax, DWORD PTR ___security_cookie
	xor	eax, ebp
	push	eax
	lea	eax, DWORD PTR __$EHRec$[ebp]
	mov	DWORD PTR fs:0, eax
	mov	DWORD PTR _this$[ebp], ecx
; Line 1614
	mov	eax, DWORD PTR _this$[ebp]
	push	eax
	movzx	ecx, BYTE PTR __Dt$[ebp]
	push	ecx
	mov	edx, DWORD PTR __Px$[ebp]
	push	edx
	lea	ecx, DWORD PTR $T82670[ebp]
	call	??$?0Ulibusb_context@@VContextDeleter@@@?$shared_ptr@Ulibusb_context@@@tr1@std@@QAE@PAUlibusb_context@@VContextDeleter@@@Z ; std::tr1::shared_ptr<libusb_context>::shared_ptr<libusb_context><libusb_context,ContextDeleter>
	mov	DWORD PTR tv74[ebp], eax
	mov	eax, DWORD PTR tv74[ebp]
	mov	DWORD PTR tv73[ebp], eax
	mov	DWORD PTR __$EHRec$[ebp+8], 0
	mov	ecx, DWORD PTR tv73[ebp]
	call	?swap@?$shared_ptr@Ulibusb_context@@@tr1@std@@QAEXAAV123@@Z ; std::tr1::shared_ptr<libusb_context>::swap
	mov	DWORD PTR __$EHRec$[ebp+8], -1
	lea	ecx, DWORD PTR $T82670[ebp]
	call	??1?$shared_ptr@Ulibusb_context@@@tr1@std@@QAE@XZ ; std::tr1::shared_ptr<libusb_context>::~shared_ptr<libusb_context>
; Line 1615
	mov	ecx, DWORD PTR __$EHRec$[ebp]
	mov	DWORD PTR fs:0, ecx
	pop	ecx
	pop	edi
	pop	esi
	pop	ebx
	add	esp, 240				; 000000f0H
	cmp	ebp, esp
	call	__RTC_CheckEsp
	mov	esp, ebp
	pop	ebp
	ret	8
_TEXT	ENDS
;	COMDAT text$x
text$x	SEGMENT
__unwindfunclet$??$reset@Ulibusb_context@@VContextDeleter@@@?$shared_ptr@Ulibusb_context@@@tr1@std@@QAEXPAUlibusb_context@@VContextDeleter@@@Z$0:
	lea	ecx, DWORD PTR $T82670[ebp]
	jmp	??1?$shared_ptr@Ulibusb_context@@@tr1@std@@QAE@XZ ; std::tr1::shared_ptr<libusb_context>::~shared_ptr<libusb_context>
__ehhandler$??$reset@Ulibusb_context@@VContextDeleter@@@?$shared_ptr@Ulibusb_context@@@tr1@std@@QAEXPAUlibusb_context@@VContextDeleter@@@Z:
	mov	edx, DWORD PTR [esp+8]
	lea	eax, DWORD PTR [edx+12]
	mov	ecx, DWORD PTR [edx-244]
	xor	ecx, eax
	call	@__security_check_cookie@4
	mov	eax, OFFSET __ehfuncinfo$??$reset@Ulibusb_context@@VContextDeleter@@@?$shared_ptr@Ulibusb_context@@@tr1@std@@QAEXPAUlibusb_context@@VContextDeleter@@@Z
	jmp	___CxxFrameHandler3
text$x	ENDS
??$reset@Ulibusb_context@@VContextDeleter@@@?$shared_ptr@Ulibusb_context@@@tr1@std@@QAEXPAUlibusb_context@@VContextDeleter@@@Z ENDP ; std::tr1::shared_ptr<libusb_context>::reset<libusb_context,ContextDeleter>
PUBLIC	?_Decref@?$_Ptr_base@Ulibusb_context@@@tr1@std@@QAEXXZ ; std::tr1::_Ptr_base<libusb_context>::_Decref
; Function compile flags: /Odtp /RTCsu /ZI
;	COMDAT ??1?$shared_ptr@Ulibusb_context@@@tr1@std@@QAE@XZ
_TEXT	SEGMENT
_this$ = -8						; size = 4
??1?$shared_ptr@Ulibusb_context@@@tr1@std@@QAE@XZ PROC	; std::tr1::shared_ptr<libusb_context>::~shared_ptr<libusb_context>, COMDAT
; _this$ = ecx
; Line 1575
	push	ebp
	mov	ebp, esp
	sub	esp, 204				; 000000ccH
	push	ebx
	push	esi
	push	edi
	push	ecx
	lea	edi, DWORD PTR [ebp-204]
	mov	ecx, 51					; 00000033H
	mov	eax, -858993460				; ccccccccH
	rep stosd
	pop	ecx
	mov	DWORD PTR _this$[ebp], ecx
; Line 1576
	mov	ecx, DWORD PTR _this$[ebp]
	call	?_Decref@?$_Ptr_base@Ulibusb_context@@@tr1@std@@QAEXXZ ; std::tr1::_Ptr_base<libusb_context>::_Decref
; Line 1577
	pop	edi
	pop	esi
	pop	ebx
	add	esp, 204				; 000000ccH
	cmp	ebp, esp
	call	__RTC_CheckEsp
	mov	esp, ebp
	pop	ebp
	ret	0
??1?$shared_ptr@Ulibusb_context@@@tr1@std@@QAE@XZ ENDP	; std::tr1::shared_ptr<libusb_context>::~shared_ptr<libusb_context>
_TEXT	ENDS
PUBLIC	?_Decref@_Ref_count_base@tr1@std@@QAEXXZ	; std::tr1::_Ref_count_base::_Decref
; Function compile flags: /Odtp /RTCsu /ZI
;	COMDAT ?_Decref@?$_Ptr_base@Ulibusb_context@@@tr1@std@@QAEXXZ
_TEXT	SEGMENT
_this$ = -8						; size = 4
?_Decref@?$_Ptr_base@Ulibusb_context@@@tr1@std@@QAEXXZ PROC ; std::tr1::_Ptr_base<libusb_context>::_Decref, COMDAT
; _this$ = ecx
; Line 1288
	push	ebp
	mov	ebp, esp
	sub	esp, 204				; 000000ccH
	push	ebx
	push	esi
	push	edi
	push	ecx
	lea	edi, DWORD PTR [ebp-204]
	mov	ecx, 51					; 00000033H
	mov	eax, -858993460				; ccccccccH
	rep stosd
	pop	ecx
	mov	DWORD PTR _this$[ebp], ecx
; Line 1289
	mov	eax, DWORD PTR _this$[ebp]
	cmp	DWORD PTR [eax+4], 0
	je	SHORT $LN2@Decref
; Line 1290
	mov	eax, DWORD PTR _this$[ebp]
	mov	ecx, DWORD PTR [eax+4]
	call	?_Decref@_Ref_count_base@tr1@std@@QAEXXZ ; std::tr1::_Ref_count_base::_Decref
$LN2@Decref:
; Line 1291
	pop	edi
	pop	esi
	pop	ebx
	add	esp, 204				; 000000ccH
	cmp	ebp, esp
	call	__RTC_CheckEsp
	mov	esp, ebp
	pop	ebp
	ret	0
?_Decref@?$_Ptr_base@Ulibusb_context@@@tr1@std@@QAEXXZ ENDP ; std::tr1::_Ptr_base<libusb_context>::_Decref
_TEXT	ENDS
PUBLIC	?_Decwref@_Ref_count_base@tr1@std@@QAEXXZ	; std::tr1::_Ref_count_base::_Decwref
; Function compile flags: /Odtp /RTCsu /ZI
;	COMDAT ?_Decref@_Ref_count_base@tr1@std@@QAEXXZ
_TEXT	SEGMENT
_this$ = -8						; size = 4
?_Decref@_Ref_count_base@tr1@std@@QAEXXZ PROC		; std::tr1::_Ref_count_base::_Decref, COMDAT
; _this$ = ecx
; Line 1063
	push	ebp
	mov	ebp, esp
	sub	esp, 204				; 000000ccH
	push	ebx
	push	esi
	push	edi
	push	ecx
	lea	edi, DWORD PTR [ebp-204]
	mov	ecx, 51					; 00000033H
	mov	eax, -858993460				; ccccccccH
	rep stosd
	pop	ecx
	mov	DWORD PTR _this$[ebp], ecx
; Line 1064
	mov	eax, DWORD PTR _this$[ebp]
	add	eax, 4
	or	ecx, -1
	lock	 xadd	 DWORD PTR [eax], ecx
	dec	ecx
	jne	SHORT $LN2@Decref@2
; Line 1066
	mov	eax, DWORD PTR _this$[ebp]
	mov	edx, DWORD PTR [eax]
	mov	esi, esp
	mov	ecx, DWORD PTR _this$[ebp]
	mov	eax, DWORD PTR [edx]
	call	eax
	cmp	esi, esp
	call	__RTC_CheckEsp
; Line 1067
	mov	ecx, DWORD PTR _this$[ebp]
	call	?_Decwref@_Ref_count_base@tr1@std@@QAEXXZ ; std::tr1::_Ref_count_base::_Decwref
$LN2@Decref@2:
; Line 1069
	pop	edi
	pop	esi
	pop	ebx
	add	esp, 204				; 000000ccH
	cmp	ebp, esp
	call	__RTC_CheckEsp
	mov	esp, ebp
	pop	ebp
	ret	0
?_Decref@_Ref_count_base@tr1@std@@QAEXXZ ENDP		; std::tr1::_Ref_count_base::_Decref
; Function compile flags: /Odtp /RTCsu /ZI
_TEXT	ENDS
;	COMDAT ?_Decwref@_Ref_count_base@tr1@std@@QAEXXZ
_TEXT	SEGMENT
_this$ = -8						; size = 4
?_Decwref@_Ref_count_base@tr1@std@@QAEXXZ PROC		; std::tr1::_Ref_count_base::_Decwref, COMDAT
; _this$ = ecx
; Line 1072
	push	ebp
	mov	ebp, esp
	sub	esp, 204				; 000000ccH
	push	ebx
	push	esi
	push	edi
	push	ecx
	lea	edi, DWORD PTR [ebp-204]
	mov	ecx, 51					; 00000033H
	mov	eax, -858993460				; ccccccccH
	rep stosd
	pop	ecx
	mov	DWORD PTR _this$[ebp], ecx
; Line 1073
	mov	eax, DWORD PTR _this$[ebp]
	add	eax, 8
	or	ecx, -1
	lock	 xadd	 DWORD PTR [eax], ecx
	dec	ecx
	jne	SHORT $LN2@Decwref
; Line 1074
	mov	eax, DWORD PTR _this$[ebp]
	mov	edx, DWORD PTR [eax]
	mov	esi, esp
	mov	ecx, DWORD PTR _this$[ebp]
	mov	eax, DWORD PTR [edx+4]
	call	eax
	cmp	esi, esp
	call	__RTC_CheckEsp
$LN2@Decwref:
; Line 1075
	pop	edi
	pop	esi
	pop	ebx
	add	esp, 204				; 000000ccH
	cmp	ebp, esp
	call	__RTC_CheckEsp
	mov	esp, ebp
	pop	ebp
	ret	0
?_Decwref@_Ref_count_base@tr1@std@@QAEXXZ ENDP		; std::tr1::_Ref_count_base::_Decwref
_TEXT	ENDS
PUBLIC	?_Swap@?$_Ptr_base@Ulibusb_context@@@tr1@std@@QAEXAAV123@@Z ; std::tr1::_Ptr_base<libusb_context>::_Swap
; Function compile flags: /Odtp /RTCsu /ZI
;	COMDAT ?swap@?$shared_ptr@Ulibusb_context@@@tr1@std@@QAEXAAV123@@Z
_TEXT	SEGMENT
_this$ = -8						; size = 4
__Other$ = 8						; size = 4
?swap@?$shared_ptr@Ulibusb_context@@@tr1@std@@QAEXAAV123@@Z PROC ; std::tr1::shared_ptr<libusb_context>::swap, COMDAT
; _this$ = ecx
; Line 1628
	push	ebp
	mov	ebp, esp
	sub	esp, 204				; 000000ccH
	push	ebx
	push	esi
	push	edi
	push	ecx
	lea	edi, DWORD PTR [ebp-204]
	mov	ecx, 51					; 00000033H
	mov	eax, -858993460				; ccccccccH
	rep stosd
	pop	ecx
	mov	DWORD PTR _this$[ebp], ecx
; Line 1629
	mov	eax, DWORD PTR __Other$[ebp]
	push	eax
	mov	ecx, DWORD PTR _this$[ebp]
	call	?_Swap@?$_Ptr_base@Ulibusb_context@@@tr1@std@@QAEXAAV123@@Z ; std::tr1::_Ptr_base<libusb_context>::_Swap
; Line 1630
	pop	edi
	pop	esi
	pop	ebx
	add	esp, 204				; 000000ccH
	cmp	ebp, esp
	call	__RTC_CheckEsp
	mov	esp, ebp
	pop	ebp
	ret	4
?swap@?$shared_ptr@Ulibusb_context@@@tr1@std@@QAEXAAV123@@Z ENDP ; std::tr1::shared_ptr<libusb_context>::swap
_TEXT	ENDS
PUBLIC	??$swap@PAUlibusb_context@@@std@@YAXAAPAUlibusb_context@@0@Z ; std::swap<libusb_context *>
PUBLIC	??$swap@PAV_Ref_count_base@tr1@std@@@std@@YAXAAPAV_Ref_count_base@tr1@0@0@Z ; std::swap<std::tr1::_Ref_count_base *>
; Function compile flags: /Odtp /RTCsu /ZI
;	COMDAT ?_Swap@?$_Ptr_base@Ulibusb_context@@@tr1@std@@QAEXAAV123@@Z
_TEXT	SEGMENT
_this$ = -8						; size = 4
__Right$ = 8						; size = 4
?_Swap@?$_Ptr_base@Ulibusb_context@@@tr1@std@@QAEXAAV123@@Z PROC ; std::tr1::_Ptr_base<libusb_context>::_Swap, COMDAT
; _this$ = ecx
; Line 1261
	push	ebp
	mov	ebp, esp
	sub	esp, 204				; 000000ccH
	push	ebx
	push	esi
	push	edi
	push	ecx
	lea	edi, DWORD PTR [ebp-204]
	mov	ecx, 51					; 00000033H
	mov	eax, -858993460				; ccccccccH
	rep stosd
	pop	ecx
	mov	DWORD PTR _this$[ebp], ecx
; Line 1262
	mov	eax, DWORD PTR __Right$[ebp]
	add	eax, 4
	push	eax
	mov	ecx, DWORD PTR _this$[ebp]
	add	ecx, 4
	push	ecx
	call	??$swap@PAV_Ref_count_base@tr1@std@@@std@@YAXAAPAV_Ref_count_base@tr1@0@0@Z ; std::swap<std::tr1::_Ref_count_base *>
	add	esp, 8
; Line 1263
	mov	eax, DWORD PTR __Right$[ebp]
	push	eax
	mov	ecx, DWORD PTR _this$[ebp]
	push	ecx
	call	??$swap@PAUlibusb_context@@@std@@YAXAAPAUlibusb_context@@0@Z ; std::swap<libusb_context *>
	add	esp, 8
; Line 1264
	pop	edi
	pop	esi
	pop	ebx
	add	esp, 204				; 000000ccH
	cmp	ebp, esp
	call	__RTC_CheckEsp
	mov	esp, ebp
	pop	ebp
	ret	4
?_Swap@?$_Ptr_base@Ulibusb_context@@@tr1@std@@QAEXAAV123@@Z ENDP ; std::tr1::_Ptr_base<libusb_context>::_Swap
_TEXT	ENDS
PUBLIC	??$_Resetp@Ulibusb_context@@VContextDeleter@@@?$shared_ptr@Ulibusb_context@@@tr1@std@@AAEXPAUlibusb_context@@VContextDeleter@@@Z ; std::tr1::shared_ptr<libusb_context>::_Resetp<libusb_context,ContextDeleter>
PUBLIC	??0?$_Ptr_base@Ulibusb_context@@@tr1@std@@QAE@XZ ; std::tr1::_Ptr_base<libusb_context>::_Ptr_base<libusb_context>
; Function compile flags: /Odtp /RTCsu /ZI
;	COMDAT ??$?0Ulibusb_context@@VContextDeleter@@@?$shared_ptr@Ulibusb_context@@@tr1@std@@QAE@PAUlibusb_context@@VContextDeleter@@@Z
_TEXT	SEGMENT
_this$ = -8						; size = 4
__Px$ = 8						; size = 4
__Dt$ = 12						; size = 1
??$?0Ulibusb_context@@VContextDeleter@@@?$shared_ptr@Ulibusb_context@@@tr1@std@@QAE@PAUlibusb_context@@VContextDeleter@@@Z PROC ; std::tr1::shared_ptr<libusb_context>::shared_ptr<libusb_context><libusb_context,ContextDeleter>, COMDAT
; _this$ = ecx
; Line 1436
	push	ebp
	mov	ebp, esp
	sub	esp, 204				; 000000ccH
	push	ebx
	push	esi
	push	edi
	push	ecx
	lea	edi, DWORD PTR [ebp-204]
	mov	ecx, 51					; 00000033H
	mov	eax, -858993460				; ccccccccH
	rep stosd
	pop	ecx
	mov	DWORD PTR _this$[ebp], ecx
	mov	ecx, DWORD PTR _this$[ebp]
	call	??0?$_Ptr_base@Ulibusb_context@@@tr1@std@@QAE@XZ ; std::tr1::_Ptr_base<libusb_context>::_Ptr_base<libusb_context>
; Line 1438
	movzx	eax, BYTE PTR __Dt$[ebp]
	push	eax
	mov	ecx, DWORD PTR __Px$[ebp]
	push	ecx
	mov	ecx, DWORD PTR _this$[ebp]
	call	??$_Resetp@Ulibusb_context@@VContextDeleter@@@?$shared_ptr@Ulibusb_context@@@tr1@std@@AAEXPAUlibusb_context@@VContextDeleter@@@Z ; std::tr1::shared_ptr<libusb_context>::_Resetp<libusb_context,ContextDeleter>
; Line 1439
	mov	eax, DWORD PTR _this$[ebp]
	pop	edi
	pop	esi
	pop	ebx
	add	esp, 204				; 000000ccH
	cmp	ebp, esp
	call	__RTC_CheckEsp
	mov	esp, ebp
	pop	ebp
	ret	8
??$?0Ulibusb_context@@VContextDeleter@@@?$shared_ptr@Ulibusb_context@@@tr1@std@@QAE@PAUlibusb_context@@VContextDeleter@@@Z ENDP ; std::tr1::shared_ptr<libusb_context>::shared_ptr<libusb_context><libusb_context,ContextDeleter>
; Function compile flags: /Odtp /RTCsu /ZI
_TEXT	ENDS
;	COMDAT ??0?$_Ptr_base@Ulibusb_context@@@tr1@std@@QAE@XZ
_TEXT	SEGMENT
_this$ = -8						; size = 4
??0?$_Ptr_base@Ulibusb_context@@@tr1@std@@QAE@XZ PROC	; std::tr1::_Ptr_base<libusb_context>::_Ptr_base<libusb_context>, COMDAT
; _this$ = ecx
; Line 1226
	push	ebp
	mov	ebp, esp
	sub	esp, 204				; 000000ccH
	push	ebx
	push	esi
	push	edi
	push	ecx
	lea	edi, DWORD PTR [ebp-204]
	mov	ecx, 51					; 00000033H
	mov	eax, -858993460				; ccccccccH
	rep stosd
	pop	ecx
	mov	DWORD PTR _this$[ebp], ecx
	mov	eax, DWORD PTR _this$[ebp]
	mov	DWORD PTR [eax], 0
	mov	eax, DWORD PTR _this$[ebp]
	mov	DWORD PTR [eax+4], 0
; Line 1227
	mov	eax, DWORD PTR _this$[ebp]
	pop	edi
	pop	esi
	pop	ebx
	mov	esp, ebp
	pop	ebp
	ret	0
??0?$_Ptr_base@Ulibusb_context@@@tr1@std@@QAE@XZ ENDP	; std::tr1::_Ptr_base<libusb_context>::_Ptr_base<libusb_context>
_TEXT	ENDS
PUBLIC	??$_Move@AAPAV_Ref_count_base@tr1@std@@@std@@YA$$QAPAV_Ref_count_base@tr1@0@AAPAV120@@Z ; std::_Move<std::tr1::_Ref_count_base * &>
; Function compile flags: /Odtp /RTCsu /ZI
;	COMDAT ??$swap@PAV_Ref_count_base@tr1@std@@@std@@YAXAAPAV_Ref_count_base@tr1@0@0@Z
_TEXT	SEGMENT
__Tmp$ = -8						; size = 4
__Left$ = 8						; size = 4
__Right$ = 12						; size = 4
??$swap@PAV_Ref_count_base@tr1@std@@@std@@YAXAAPAV_Ref_count_base@tr1@0@0@Z PROC ; std::swap<std::tr1::_Ref_count_base *>, COMDAT
; File c:\program files (x86)\microsoft visual studio 10.0\vc\include\utility
; Line 101
	push	ebp
	mov	ebp, esp
	sub	esp, 204				; 000000ccH
	push	ebx
	push	esi
	push	edi
	lea	edi, DWORD PTR [ebp-204]
	mov	ecx, 51					; 00000033H
	mov	eax, -858993460				; ccccccccH
	rep stosd
; Line 102
	mov	eax, DWORD PTR __Left$[ebp]
	push	eax
	call	??$_Move@AAPAV_Ref_count_base@tr1@std@@@std@@YA$$QAPAV_Ref_count_base@tr1@0@AAPAV120@@Z ; std::_Move<std::tr1::_Ref_count_base * &>
	add	esp, 4
	mov	ecx, DWORD PTR [eax]
	mov	DWORD PTR __Tmp$[ebp], ecx
; Line 103
	mov	eax, DWORD PTR __Right$[ebp]
	push	eax
	call	??$_Move@AAPAV_Ref_count_base@tr1@std@@@std@@YA$$QAPAV_Ref_count_base@tr1@0@AAPAV120@@Z ; std::_Move<std::tr1::_Ref_count_base * &>
	add	esp, 4
	mov	ecx, DWORD PTR __Left$[ebp]
	mov	edx, DWORD PTR [eax]
	mov	DWORD PTR [ecx], edx
; Line 104
	lea	eax, DWORD PTR __Tmp$[ebp]
	push	eax
	call	??$_Move@AAPAV_Ref_count_base@tr1@std@@@std@@YA$$QAPAV_Ref_count_base@tr1@0@AAPAV120@@Z ; std::_Move<std::tr1::_Ref_count_base * &>
	add	esp, 4
	mov	ecx, DWORD PTR __Right$[ebp]
	mov	edx, DWORD PTR [eax]
	mov	DWORD PTR [ecx], edx
; Line 105
	push	edx
	mov	ecx, ebp
	push	eax
	lea	edx, DWORD PTR $LN5@swap
	call	@_RTC_CheckStackVars@8
	pop	eax
	pop	edx
	pop	edi
	pop	esi
	pop	ebx
	add	esp, 204				; 000000ccH
	cmp	ebp, esp
	call	__RTC_CheckEsp
	mov	esp, ebp
	pop	ebp
	ret	0
	npad	2
$LN5@swap:
	DD	1
	DD	$LN4@swap
$LN4@swap:
	DD	-8					; fffffff8H
	DD	4
	DD	$LN3@swap
$LN3@swap:
	DB	95					; 0000005fH
	DB	84					; 00000054H
	DB	109					; 0000006dH
	DB	112					; 00000070H
	DB	0
??$swap@PAV_Ref_count_base@tr1@std@@@std@@YAXAAPAV_Ref_count_base@tr1@0@0@Z ENDP ; std::swap<std::tr1::_Ref_count_base *>
_TEXT	ENDS
PUBLIC	??$_Move@AAPAUlibusb_context@@@std@@YA$$QAPAUlibusb_context@@AAPAU1@@Z ; std::_Move<libusb_context * &>
; Function compile flags: /Odtp /RTCsu /ZI
;	COMDAT ??$swap@PAUlibusb_context@@@std@@YAXAAPAUlibusb_context@@0@Z
_TEXT	SEGMENT
__Tmp$ = -8						; size = 4
__Left$ = 8						; size = 4
__Right$ = 12						; size = 4
??$swap@PAUlibusb_context@@@std@@YAXAAPAUlibusb_context@@0@Z PROC ; std::swap<libusb_context *>, COMDAT
; Line 101
	push	ebp
	mov	ebp, esp
	sub	esp, 204				; 000000ccH
	push	ebx
	push	esi
	push	edi
	lea	edi, DWORD PTR [ebp-204]
	mov	ecx, 51					; 00000033H
	mov	eax, -858993460				; ccccccccH
	rep stosd
; Line 102
	mov	eax, DWORD PTR __Left$[ebp]
	push	eax
	call	??$_Move@AAPAUlibusb_context@@@std@@YA$$QAPAUlibusb_context@@AAPAU1@@Z ; std::_Move<libusb_context * &>
	add	esp, 4
	mov	ecx, DWORD PTR [eax]
	mov	DWORD PTR __Tmp$[ebp], ecx
; Line 103
	mov	eax, DWORD PTR __Right$[ebp]
	push	eax
	call	??$_Move@AAPAUlibusb_context@@@std@@YA$$QAPAUlibusb_context@@AAPAU1@@Z ; std::_Move<libusb_context * &>
	add	esp, 4
	mov	ecx, DWORD PTR __Left$[ebp]
	mov	edx, DWORD PTR [eax]
	mov	DWORD PTR [ecx], edx
; Line 104
	lea	eax, DWORD PTR __Tmp$[ebp]
	push	eax
	call	??$_Move@AAPAUlibusb_context@@@std@@YA$$QAPAUlibusb_context@@AAPAU1@@Z ; std::_Move<libusb_context * &>
	add	esp, 4
	mov	ecx, DWORD PTR __Right$[ebp]
	mov	edx, DWORD PTR [eax]
	mov	DWORD PTR [ecx], edx
; Line 105
	push	edx
	mov	ecx, ebp
	push	eax
	lea	edx, DWORD PTR $LN5@swap@2
	call	@_RTC_CheckStackVars@8
	pop	eax
	pop	edx
	pop	edi
	pop	esi
	pop	ebx
	add	esp, 204				; 000000ccH
	cmp	ebp, esp
	call	__RTC_CheckEsp
	mov	esp, ebp
	pop	ebp
	ret	0
	npad	2
$LN5@swap@2:
	DD	1
	DD	$LN4@swap@2
$LN4@swap@2:
	DD	-8					; fffffff8H
	DD	4
	DD	$LN3@swap@2
$LN3@swap@2:
	DB	95					; 0000005fH
	DB	84					; 00000054H
	DB	109					; 0000006dH
	DB	112					; 00000070H
	DB	0
??$swap@PAUlibusb_context@@@std@@YAXAAPAUlibusb_context@@0@Z ENDP ; std::swap<libusb_context *>
_TEXT	ENDS
PUBLIC	??RContextDeleter@@QAEXPAUlibusb_context@@@Z	; ContextDeleter::operator()
PUBLIC	??$_Resetp0@Ulibusb_context@@@?$shared_ptr@Ulibusb_context@@@tr1@std@@QAEXPAUlibusb_context@@PAV_Ref_count_base@12@@Z ; std::tr1::shared_ptr<libusb_context>::_Resetp0<libusb_context>
PUBLIC	??0?$_Ref_count_del@Ulibusb_context@@VContextDeleter@@@tr1@std@@QAE@PAUlibusb_context@@VContextDeleter@@@Z ; std::tr1::_Ref_count_del<libusb_context,ContextDeleter>::_Ref_count_del<libusb_context,ContextDeleter>
EXTRN	??3@YAXPAX@Z:PROC				; operator delete
EXTRN	??2@YAPAXI@Z:PROC				; operator new
;	COMDAT xdata$x
; File c:\program files (x86)\microsoft visual studio 10.0\vc\include\memory
xdata$x	SEGMENT
__catchsym$??$_Resetp@Ulibusb_context@@VContextDeleter@@@?$shared_ptr@Ulibusb_context@@@tr1@std@@AAEXPAUlibusb_context@@VContextDeleter@@@Z$3 DD 040H
	DD	00H
	DD	00H
	DD	FLAT:__catch$??$_Resetp@Ulibusb_context@@VContextDeleter@@@?$shared_ptr@Ulibusb_context@@@tr1@std@@AAEXPAUlibusb_context@@VContextDeleter@@@Z$0
__tryblocktable$??$_Resetp@Ulibusb_context@@VContextDeleter@@@?$shared_ptr@Ulibusb_context@@@tr1@std@@AAEXPAUlibusb_context@@VContextDeleter@@@Z DD 00H
	DD	01H
	DD	02H
	DD	01H
	DD	FLAT:__catchsym$??$_Resetp@Ulibusb_context@@VContextDeleter@@@?$shared_ptr@Ulibusb_context@@@tr1@std@@AAEXPAUlibusb_context@@VContextDeleter@@@Z$3
__unwindtable$??$_Resetp@Ulibusb_context@@VContextDeleter@@@?$shared_ptr@Ulibusb_context@@@tr1@std@@AAEXPAUlibusb_context@@VContextDeleter@@@Z DD 0ffffffffH
	DD	00H
	DD	00H
	DD	FLAT:__unwindfunclet$??$_Resetp@Ulibusb_context@@VContextDeleter@@@?$shared_ptr@Ulibusb_context@@@tr1@std@@AAEXPAUlibusb_context@@VContextDeleter@@@Z$2
	DD	0ffffffffH
	DD	00H
__ehfuncinfo$??$_Resetp@Ulibusb_context@@VContextDeleter@@@?$shared_ptr@Ulibusb_context@@@tr1@std@@AAEXPAUlibusb_context@@VContextDeleter@@@Z DD 019930522H
	DD	03H
	DD	FLAT:__unwindtable$??$_Resetp@Ulibusb_context@@VContextDeleter@@@?$shared_ptr@Ulibusb_context@@@tr1@std@@AAEXPAUlibusb_context@@VContextDeleter@@@Z
	DD	01H
	DD	FLAT:__tryblocktable$??$_Resetp@Ulibusb_context@@VContextDeleter@@@?$shared_ptr@Ulibusb_context@@@tr1@std@@AAEXPAUlibusb_context@@VContextDeleter@@@Z
	DD	2 DUP(00H)
	DD	00H
	DD	01H
; Function compile flags: /Odtp /RTCsu /ZI
xdata$x	ENDS
;	COMDAT ??$_Resetp@Ulibusb_context@@VContextDeleter@@@?$shared_ptr@Ulibusb_context@@@tr1@std@@AAEXPAUlibusb_context@@VContextDeleter@@@Z
_TEXT	SEGMENT
tv77 = -256						; size = 4
tv88 = -252						; size = 4
tv86 = -248						; size = 4
$T82711 = -240						; size = 4
$T82712 = -228						; size = 4
_this$ = -24						; size = 4
__$EHRec$ = -16						; size = 16
__Px$ = 8						; size = 4
__Dt$ = 12						; size = 1
??$_Resetp@Ulibusb_context@@VContextDeleter@@@?$shared_ptr@Ulibusb_context@@@tr1@std@@AAEXPAUlibusb_context@@VContextDeleter@@@Z PROC ; std::tr1::shared_ptr<libusb_context>::_Resetp<libusb_context,ContextDeleter>, COMDAT
; _this$ = ecx
; Line 1671
	push	ebp
	mov	ebp, esp
	push	-1
	push	__ehhandler$??$_Resetp@Ulibusb_context@@VContextDeleter@@@?$shared_ptr@Ulibusb_context@@@tr1@std@@AAEXPAUlibusb_context@@VContextDeleter@@@Z
	mov	eax, DWORD PTR fs:0
	push	eax
	push	ecx
	sub	esp, 240				; 000000f0H
	push	ebx
	push	esi
	push	edi
	push	ecx
	lea	edi, DWORD PTR [ebp-256]
	mov	ecx, 60					; 0000003cH
	mov	eax, -858993460				; ccccccccH
	rep stosd
	pop	ecx
	mov	eax, DWORD PTR ___security_cookie
	xor	eax, ebp
	push	eax
	lea	eax, DWORD PTR __$EHRec$[ebp+4]
	mov	DWORD PTR fs:0, eax
	mov	DWORD PTR __$EHRec$[ebp], esp
	mov	DWORD PTR _this$[ebp], ecx
; Line 1673
	mov	DWORD PTR __$EHRec$[ebp+12], 0
; Line 1674
	push	20					; 00000014H
	call	??2@YAPAXI@Z				; operator new
	add	esp, 4
	mov	DWORD PTR tv86[ebp], eax
	mov	eax, DWORD PTR tv86[ebp]
	mov	DWORD PTR $T82712[ebp], eax
	mov	BYTE PTR __$EHRec$[ebp+12], 1
	cmp	DWORD PTR $T82712[ebp], 0
	je	SHORT $LN4@Resetp
	movzx	ecx, BYTE PTR __Dt$[ebp]
	push	ecx
	mov	edx, DWORD PTR __Px$[ebp]
	push	edx
	mov	ecx, DWORD PTR $T82712[ebp]
	call	??0?$_Ref_count_del@Ulibusb_context@@VContextDeleter@@@tr1@std@@QAE@PAUlibusb_context@@VContextDeleter@@@Z ; std::tr1::_Ref_count_del<libusb_context,ContextDeleter>::_Ref_count_del<libusb_context,ContextDeleter>
	mov	DWORD PTR tv88[ebp], eax
	mov	eax, DWORD PTR tv88[ebp]
	mov	DWORD PTR tv77[ebp], eax
	jmp	SHORT $LN5@Resetp
$LN4@Resetp:
	mov	DWORD PTR tv77[ebp], 0
$LN5@Resetp:
	mov	ecx, DWORD PTR tv77[ebp]
	mov	DWORD PTR $T82711[ebp], ecx
	mov	BYTE PTR __$EHRec$[ebp+12], 0
	mov	edx, DWORD PTR $T82711[ebp]
	push	edx
	mov	eax, DWORD PTR __Px$[ebp]
	push	eax
	mov	ecx, DWORD PTR _this$[ebp]
	call	??$_Resetp0@Ulibusb_context@@@?$shared_ptr@Ulibusb_context@@@tr1@std@@QAEXPAUlibusb_context@@PAV_Ref_count_base@12@@Z ; std::tr1::shared_ptr<libusb_context>::_Resetp0<libusb_context>
	jmp	SHORT $LN6@Resetp
__catch$??$_Resetp@Ulibusb_context@@VContextDeleter@@@?$shared_ptr@Ulibusb_context@@@tr1@std@@AAEXPAUlibusb_context@@VContextDeleter@@@Z$0:
; Line 1676
	mov	eax, DWORD PTR __Px$[ebp]
	push	eax
	lea	ecx, DWORD PTR __Dt$[ebp]
	call	??RContextDeleter@@QAEXPAUlibusb_context@@@Z ; ContextDeleter::operator()
; Line 1677
	push	0
	push	0
	call	__CxxThrowException@8
; Line 1678
	mov	DWORD PTR __$EHRec$[ebp+12], -1
	mov	eax, $LN3@Resetp
	ret	0
$LN6@Resetp:
	mov	DWORD PTR __$EHRec$[ebp+12], -1
$LN3@Resetp:
; Line 1679
	mov	ecx, DWORD PTR __$EHRec$[ebp+4]
	mov	DWORD PTR fs:0, ecx
	pop	ecx
	pop	edi
	pop	esi
	pop	ebx
	add	esp, 256				; 00000100H
	cmp	ebp, esp
	call	__RTC_CheckEsp
	mov	esp, ebp
	pop	ebp
	ret	8
_TEXT	ENDS
;	COMDAT text$x
text$x	SEGMENT
__unwindfunclet$??$_Resetp@Ulibusb_context@@VContextDeleter@@@?$shared_ptr@Ulibusb_context@@@tr1@std@@AAEXPAUlibusb_context@@VContextDeleter@@@Z$2:
	mov	eax, DWORD PTR $T82712[ebp]
	push	eax
	call	??3@YAXPAX@Z				; operator delete
	pop	ecx
	ret	0
__ehhandler$??$_Resetp@Ulibusb_context@@VContextDeleter@@@?$shared_ptr@Ulibusb_context@@@tr1@std@@AAEXPAUlibusb_context@@VContextDeleter@@@Z:
	mov	edx, DWORD PTR [esp+8]
	lea	eax, DWORD PTR [edx+12]
	mov	ecx, DWORD PTR [edx-260]
	xor	ecx, eax
	call	@__security_check_cookie@4
	mov	eax, OFFSET __ehfuncinfo$??$_Resetp@Ulibusb_context@@VContextDeleter@@@?$shared_ptr@Ulibusb_context@@@tr1@std@@AAEXPAUlibusb_context@@VContextDeleter@@@Z
	jmp	___CxxFrameHandler3
text$x	ENDS
??$_Resetp@Ulibusb_context@@VContextDeleter@@@?$shared_ptr@Ulibusb_context@@@tr1@std@@AAEXPAUlibusb_context@@VContextDeleter@@@Z ENDP ; std::tr1::shared_ptr<libusb_context>::_Resetp<libusb_context,ContextDeleter>
EXTRN	_libusb_exit@4:PROC
; Function compile flags: /Odtp /RTCsu /ZI
;	COMDAT ??RContextDeleter@@QAEXPAUlibusb_context@@@Z
_TEXT	SEGMENT
_this$ = -8						; size = 4
_ctx$ = 8						; size = 4
??RContextDeleter@@QAEXPAUlibusb_context@@@Z PROC	; ContextDeleter::operator(), COMDAT
; _this$ = ecx
; File d:\workspace\libusb++\src\libusbimpl.cpp
; Line 9
	push	ebp
	mov	ebp, esp
	sub	esp, 204				; 000000ccH
	push	ebx
	push	esi
	push	edi
	push	ecx
	lea	edi, DWORD PTR [ebp-204]
	mov	ecx, 51					; 00000033H
	mov	eax, -858993460				; ccccccccH
	rep stosd
	pop	ecx
	mov	DWORD PTR _this$[ebp], ecx
	mov	eax, DWORD PTR _ctx$[ebp]
	push	eax
	call	_libusb_exit@4
	pop	edi
	pop	esi
	pop	ebx
	add	esp, 204				; 000000ccH
	cmp	ebp, esp
	call	__RTC_CheckEsp
	mov	esp, ebp
	pop	ebp
	ret	4
??RContextDeleter@@QAEXPAUlibusb_context@@@Z ENDP	; ContextDeleter::operator()
; Function compile flags: /Odtp /RTCsu /ZI
_TEXT	ENDS
;	COMDAT ??$_Move@AAPAV_Ref_count_base@tr1@std@@@std@@YA$$QAPAV_Ref_count_base@tr1@0@AAPAV120@@Z
_TEXT	SEGMENT
__Arg$ = 8						; size = 4
??$_Move@AAPAV_Ref_count_base@tr1@std@@@std@@YA$$QAPAV_Ref_count_base@tr1@0@AAPAV120@@Z PROC ; std::_Move<std::tr1::_Ref_count_base * &>, COMDAT
; File c:\program files (x86)\microsoft visual studio 10.0\vc\include\utility
; Line 94
	push	ebp
	mov	ebp, esp
	sub	esp, 192				; 000000c0H
	push	ebx
	push	esi
	push	edi
	lea	edi, DWORD PTR [ebp-192]
	mov	ecx, 48					; 00000030H
	mov	eax, -858993460				; ccccccccH
	rep stosd
; Line 95
	mov	eax, DWORD PTR __Arg$[ebp]
; Line 96
	pop	edi
	pop	esi
	pop	ebx
	mov	esp, ebp
	pop	ebp
	ret	0
??$_Move@AAPAV_Ref_count_base@tr1@std@@@std@@YA$$QAPAV_Ref_count_base@tr1@0@AAPAV120@@Z ENDP ; std::_Move<std::tr1::_Ref_count_base * &>
; Function compile flags: /Odtp /RTCsu /ZI
_TEXT	ENDS
;	COMDAT ??$_Move@AAPAUlibusb_context@@@std@@YA$$QAPAUlibusb_context@@AAPAU1@@Z
_TEXT	SEGMENT
__Arg$ = 8						; size = 4
??$_Move@AAPAUlibusb_context@@@std@@YA$$QAPAUlibusb_context@@AAPAU1@@Z PROC ; std::_Move<libusb_context * &>, COMDAT
; Line 94
	push	ebp
	mov	ebp, esp
	sub	esp, 192				; 000000c0H
	push	ebx
	push	esi
	push	edi
	lea	edi, DWORD PTR [ebp-192]
	mov	ecx, 48					; 00000030H
	mov	eax, -858993460				; ccccccccH
	rep stosd
; Line 95
	mov	eax, DWORD PTR __Arg$[ebp]
; Line 96
	pop	edi
	pop	esi
	pop	ebx
	mov	esp, ebp
	pop	ebp
	ret	0
??$_Move@AAPAUlibusb_context@@@std@@YA$$QAPAUlibusb_context@@AAPAU1@@Z ENDP ; std::_Move<libusb_context * &>
_TEXT	ENDS
PUBLIC	??_7?$_Ref_count_del@Ulibusb_context@@VContextDeleter@@@tr1@std@@6B@ ; std::tr1::_Ref_count_del<libusb_context,ContextDeleter>::`vftable'
PUBLIC	??0_Ref_count_base@tr1@std@@IAE@XZ		; std::tr1::_Ref_count_base::_Ref_count_base
PUBLIC	??_R4?$_Ref_count_del@Ulibusb_context@@VContextDeleter@@@tr1@std@@6B@ ; std::tr1::_Ref_count_del<libusb_context,ContextDeleter>::`RTTI Complete Object Locator'
PUBLIC	??_R0?AV?$_Ref_count_del@Ulibusb_context@@VContextDeleter@@@tr1@std@@@8 ; std::tr1::_Ref_count_del<libusb_context,ContextDeleter> `RTTI Type Descriptor'
PUBLIC	??_R3?$_Ref_count_del@Ulibusb_context@@VContextDeleter@@@tr1@std@@8 ; std::tr1::_Ref_count_del<libusb_context,ContextDeleter>::`RTTI Class Hierarchy Descriptor'
PUBLIC	??_R2?$_Ref_count_del@Ulibusb_context@@VContextDeleter@@@tr1@std@@8 ; std::tr1::_Ref_count_del<libusb_context,ContextDeleter>::`RTTI Base Class Array'
PUBLIC	??_R1A@?0A@EA@?$_Ref_count_del@Ulibusb_context@@VContextDeleter@@@tr1@std@@8 ; std::tr1::_Ref_count_del<libusb_context,ContextDeleter>::`RTTI Base Class Descriptor at (0,-1,0,64)'
PUBLIC	??_R1A@?0A@EA@_Ref_count_base@tr1@std@@8	; std::tr1::_Ref_count_base::`RTTI Base Class Descriptor at (0,-1,0,64)'
PUBLIC	??_R0?AV_Ref_count_base@tr1@std@@@8		; std::tr1::_Ref_count_base `RTTI Type Descriptor'
PUBLIC	??_R3_Ref_count_base@tr1@std@@8			; std::tr1::_Ref_count_base::`RTTI Class Hierarchy Descriptor'
PUBLIC	??_R2_Ref_count_base@tr1@std@@8			; std::tr1::_Ref_count_base::`RTTI Base Class Array'
PUBLIC	?_Destroy@?$_Ref_count_del@Ulibusb_context@@VContextDeleter@@@tr1@std@@EAEXXZ ; std::tr1::_Ref_count_del<libusb_context,ContextDeleter>::_Destroy
PUBLIC	?_Delete_this@?$_Ref_count_del@Ulibusb_context@@VContextDeleter@@@tr1@std@@EAEXXZ ; std::tr1::_Ref_count_del<libusb_context,ContextDeleter>::_Delete_this
PUBLIC	?_Get_deleter@?$_Ref_count_del@Ulibusb_context@@VContextDeleter@@@tr1@std@@UBEPAXABVtype_info@@@Z ; std::tr1::_Ref_count_del<libusb_context,ContextDeleter>::_Get_deleter
EXTRN	??_E?$_Ref_count_del@Ulibusb_context@@VContextDeleter@@@tr1@std@@UAEPAXI@Z:PROC ; std::tr1::_Ref_count_del<libusb_context,ContextDeleter>::`vector deleting destructor'
;	COMDAT ??_R2_Ref_count_base@tr1@std@@8
; File c:\program files (x86)\microsoft visual studio 10.0\vc\include\memory
rdata$r	SEGMENT
??_R2_Ref_count_base@tr1@std@@8 DD FLAT:??_R1A@?0A@EA@_Ref_count_base@tr1@std@@8 ; std::tr1::_Ref_count_base::`RTTI Base Class Array'
rdata$r	ENDS
;	COMDAT ??_R3_Ref_count_base@tr1@std@@8
rdata$r	SEGMENT
??_R3_Ref_count_base@tr1@std@@8 DD 00H			; std::tr1::_Ref_count_base::`RTTI Class Hierarchy Descriptor'
	DD	00H
	DD	01H
	DD	FLAT:??_R2_Ref_count_base@tr1@std@@8
rdata$r	ENDS
;	COMDAT ??_R0?AV_Ref_count_base@tr1@std@@@8
_DATA	SEGMENT
??_R0?AV_Ref_count_base@tr1@std@@@8 DD FLAT:??_7type_info@@6B@ ; std::tr1::_Ref_count_base `RTTI Type Descriptor'
	DD	00H
	DB	'.?AV_Ref_count_base@tr1@std@@', 00H
_DATA	ENDS
;	COMDAT ??_R1A@?0A@EA@_Ref_count_base@tr1@std@@8
rdata$r	SEGMENT
??_R1A@?0A@EA@_Ref_count_base@tr1@std@@8 DD FLAT:??_R0?AV_Ref_count_base@tr1@std@@@8 ; std::tr1::_Ref_count_base::`RTTI Base Class Descriptor at (0,-1,0,64)'
	DD	00H
	DD	00H
	DD	0ffffffffH
	DD	00H
	DD	040H
	DD	FLAT:??_R3_Ref_count_base@tr1@std@@8
rdata$r	ENDS
;	COMDAT ??_R1A@?0A@EA@?$_Ref_count_del@Ulibusb_context@@VContextDeleter@@@tr1@std@@8
rdata$r	SEGMENT
??_R1A@?0A@EA@?$_Ref_count_del@Ulibusb_context@@VContextDeleter@@@tr1@std@@8 DD FLAT:??_R0?AV?$_Ref_count_del@Ulibusb_context@@VContextDeleter@@@tr1@std@@@8 ; std::tr1::_Ref_count_del<libusb_context,ContextDeleter>::`RTTI Base Class Descriptor at (0,-1,0,64)'
	DD	01H
	DD	00H
	DD	0ffffffffH
	DD	00H
	DD	040H
	DD	FLAT:??_R3?$_Ref_count_del@Ulibusb_context@@VContextDeleter@@@tr1@std@@8
rdata$r	ENDS
;	COMDAT ??_R2?$_Ref_count_del@Ulibusb_context@@VContextDeleter@@@tr1@std@@8
rdata$r	SEGMENT
??_R2?$_Ref_count_del@Ulibusb_context@@VContextDeleter@@@tr1@std@@8 DD FLAT:??_R1A@?0A@EA@?$_Ref_count_del@Ulibusb_context@@VContextDeleter@@@tr1@std@@8 ; std::tr1::_Ref_count_del<libusb_context,ContextDeleter>::`RTTI Base Class Array'
	DD	FLAT:??_R1A@?0A@EA@_Ref_count_base@tr1@std@@8
rdata$r	ENDS
;	COMDAT ??_R3?$_Ref_count_del@Ulibusb_context@@VContextDeleter@@@tr1@std@@8
rdata$r	SEGMENT
??_R3?$_Ref_count_del@Ulibusb_context@@VContextDeleter@@@tr1@std@@8 DD 00H ; std::tr1::_Ref_count_del<libusb_context,ContextDeleter>::`RTTI Class Hierarchy Descriptor'
	DD	00H
	DD	02H
	DD	FLAT:??_R2?$_Ref_count_del@Ulibusb_context@@VContextDeleter@@@tr1@std@@8
rdata$r	ENDS
;	COMDAT ??_R0?AV?$_Ref_count_del@Ulibusb_context@@VContextDeleter@@@tr1@std@@@8
_DATA	SEGMENT
??_R0?AV?$_Ref_count_del@Ulibusb_context@@VContextDeleter@@@tr1@std@@@8 DD FLAT:??_7type_info@@6B@ ; std::tr1::_Ref_count_del<libusb_context,ContextDeleter> `RTTI Type Descriptor'
	DD	00H
	DB	'.?AV?$_Ref_count_del@Ulibusb_context@@VContextDeleter@@@'
	DB	'tr1@std@@', 00H
_DATA	ENDS
;	COMDAT ??_R4?$_Ref_count_del@Ulibusb_context@@VContextDeleter@@@tr1@std@@6B@
rdata$r	SEGMENT
??_R4?$_Ref_count_del@Ulibusb_context@@VContextDeleter@@@tr1@std@@6B@ DD 00H ; std::tr1::_Ref_count_del<libusb_context,ContextDeleter>::`RTTI Complete Object Locator'
	DD	00H
	DD	00H
	DD	FLAT:??_R0?AV?$_Ref_count_del@Ulibusb_context@@VContextDeleter@@@tr1@std@@@8
	DD	FLAT:??_R3?$_Ref_count_del@Ulibusb_context@@VContextDeleter@@@tr1@std@@8
rdata$r	ENDS
;	COMDAT ??_7?$_Ref_count_del@Ulibusb_context@@VContextDeleter@@@tr1@std@@6B@
CONST	SEGMENT
??_7?$_Ref_count_del@Ulibusb_context@@VContextDeleter@@@tr1@std@@6B@ DD FLAT:??_R4?$_Ref_count_del@Ulibusb_context@@VContextDeleter@@@tr1@std@@6B@ ; std::tr1::_Ref_count_del<libusb_context,ContextDeleter>::`vftable'
	DD	FLAT:?_Destroy@?$_Ref_count_del@Ulibusb_context@@VContextDeleter@@@tr1@std@@EAEXXZ
	DD	FLAT:?_Delete_this@?$_Ref_count_del@Ulibusb_context@@VContextDeleter@@@tr1@std@@EAEXXZ
	DD	FLAT:??_E?$_Ref_count_del@Ulibusb_context@@VContextDeleter@@@tr1@std@@UAEPAXI@Z
	DD	FLAT:?_Get_deleter@?$_Ref_count_del@Ulibusb_context@@VContextDeleter@@@tr1@std@@UBEPAXABVtype_info@@@Z
; Function compile flags: /Odtp /RTCsu /ZI
CONST	ENDS
;	COMDAT ??0?$_Ref_count_del@Ulibusb_context@@VContextDeleter@@@tr1@std@@QAE@PAUlibusb_context@@VContextDeleter@@@Z
_TEXT	SEGMENT
_this$ = -8						; size = 4
__Px$ = 8						; size = 4
__Dt$ = 12						; size = 1
??0?$_Ref_count_del@Ulibusb_context@@VContextDeleter@@@tr1@std@@QAE@PAUlibusb_context@@VContextDeleter@@@Z PROC ; std::tr1::_Ref_count_del<libusb_context,ContextDeleter>::_Ref_count_del<libusb_context,ContextDeleter>, COMDAT
; _this$ = ecx
; Line 1126
	push	ebp
	mov	ebp, esp
	sub	esp, 204				; 000000ccH
	push	ebx
	push	esi
	push	edi
	push	ecx
	lea	edi, DWORD PTR [ebp-204]
	mov	ecx, 51					; 00000033H
	mov	eax, -858993460				; ccccccccH
	rep stosd
	pop	ecx
	mov	DWORD PTR _this$[ebp], ecx
	mov	ecx, DWORD PTR _this$[ebp]
	call	??0_Ref_count_base@tr1@std@@IAE@XZ	; std::tr1::_Ref_count_base::_Ref_count_base
	mov	eax, DWORD PTR _this$[ebp]
	mov	DWORD PTR [eax], OFFSET ??_7?$_Ref_count_del@Ulibusb_context@@VContextDeleter@@@tr1@std@@6B@
	mov	eax, DWORD PTR _this$[ebp]
	mov	ecx, DWORD PTR __Px$[ebp]
	mov	DWORD PTR [eax+12], ecx
; Line 1127
	mov	eax, DWORD PTR _this$[ebp]
	pop	edi
	pop	esi
	pop	ebx
	add	esp, 204				; 000000ccH
	cmp	ebp, esp
	call	__RTC_CheckEsp
	mov	esp, ebp
	pop	ebp
	ret	8
??0?$_Ref_count_del@Ulibusb_context@@VContextDeleter@@@tr1@std@@QAE@PAUlibusb_context@@VContextDeleter@@@Z ENDP ; std::tr1::_Ref_count_del<libusb_context,ContextDeleter>::_Ref_count_del<libusb_context,ContextDeleter>
_TEXT	ENDS
PUBLIC	??_7_Ref_count_base@tr1@std@@6B@		; std::tr1::_Ref_count_base::`vftable'
PUBLIC	??_R4_Ref_count_base@tr1@std@@6B@		; std::tr1::_Ref_count_base::`RTTI Complete Object Locator'
PUBLIC	?_Get_deleter@_Ref_count_base@tr1@std@@UBEPAXABVtype_info@@@Z ; std::tr1::_Ref_count_base::_Get_deleter
EXTRN	__purecall:PROC
EXTRN	??_E_Ref_count_base@tr1@std@@UAEPAXI@Z:PROC	; std::tr1::_Ref_count_base::`vector deleting destructor'
;	COMDAT ??_R4_Ref_count_base@tr1@std@@6B@
rdata$r	SEGMENT
??_R4_Ref_count_base@tr1@std@@6B@ DD 00H		; std::tr1::_Ref_count_base::`RTTI Complete Object Locator'
	DD	00H
	DD	00H
	DD	FLAT:??_R0?AV_Ref_count_base@tr1@std@@@8
	DD	FLAT:??_R3_Ref_count_base@tr1@std@@8
rdata$r	ENDS
;	COMDAT ??_7_Ref_count_base@tr1@std@@6B@
CONST	SEGMENT
??_7_Ref_count_base@tr1@std@@6B@ DD FLAT:??_R4_Ref_count_base@tr1@std@@6B@ ; std::tr1::_Ref_count_base::`vftable'
	DD	FLAT:__purecall
	DD	FLAT:__purecall
	DD	FLAT:??_E_Ref_count_base@tr1@std@@UAEPAXI@Z
	DD	FLAT:?_Get_deleter@_Ref_count_base@tr1@std@@UBEPAXABVtype_info@@@Z
; Function compile flags: /Odtp /RTCsu /ZI
CONST	ENDS
;	COMDAT ??0_Ref_count_base@tr1@std@@IAE@XZ
_TEXT	SEGMENT
_this$ = -8						; size = 4
??0_Ref_count_base@tr1@std@@IAE@XZ PROC			; std::tr1::_Ref_count_base::_Ref_count_base, COMDAT
; _this$ = ecx
; Line 1032
	push	ebp
	mov	ebp, esp
	sub	esp, 204				; 000000ccH
	push	ebx
	push	esi
	push	edi
	push	ecx
	lea	edi, DWORD PTR [ebp-204]
	mov	ecx, 51					; 00000033H
	mov	eax, -858993460				; ccccccccH
	rep stosd
	pop	ecx
	mov	DWORD PTR _this$[ebp], ecx
	mov	eax, DWORD PTR _this$[ebp]
	mov	DWORD PTR [eax], OFFSET ??_7_Ref_count_base@tr1@std@@6B@
	mov	eax, DWORD PTR _this$[ebp]
	mov	DWORD PTR [eax+4], 1
	mov	eax, DWORD PTR _this$[ebp]
	mov	DWORD PTR [eax+8], 1
; Line 1033
	mov	eax, DWORD PTR _this$[ebp]
	pop	edi
	pop	esi
	pop	ebx
	mov	esp, ebp
	pop	ebp
	ret	0
??0_Ref_count_base@tr1@std@@IAE@XZ ENDP			; std::tr1::_Ref_count_base::_Ref_count_base
; Function compile flags: /Odtp /RTCsu /ZI
_TEXT	ENDS
;	COMDAT ?_Get_deleter@_Ref_count_base@tr1@std@@UBEPAXABVtype_info@@@Z
_TEXT	SEGMENT
_this$ = -8						; size = 4
___formal$ = 8						; size = 4
?_Get_deleter@_Ref_count_base@tr1@std@@UBEPAXABVtype_info@@@Z PROC ; std::tr1::_Ref_count_base::_Get_deleter, COMDAT
; _this$ = ecx
; Line 1088
	push	ebp
	mov	ebp, esp
	sub	esp, 204				; 000000ccH
	push	ebx
	push	esi
	push	edi
	push	ecx
	lea	edi, DWORD PTR [ebp-204]
	mov	ecx, 51					; 00000033H
	mov	eax, -858993460				; ccccccccH
	rep stosd
	pop	ecx
	mov	DWORD PTR _this$[ebp], ecx
; Line 1089
	xor	eax, eax
; Line 1090
	pop	edi
	pop	esi
	pop	ebx
	mov	esp, ebp
	pop	ebp
	ret	4
?_Get_deleter@_Ref_count_base@tr1@std@@UBEPAXABVtype_info@@@Z ENDP ; std::tr1::_Ref_count_base::_Get_deleter
_TEXT	ENDS
PUBLIC	??1_Ref_count_base@tr1@std@@UAE@XZ		; std::tr1::_Ref_count_base::~_Ref_count_base
; Function compile flags: /Odtp /RTCsu /ZI
;	COMDAT ??_G_Ref_count_base@tr1@std@@UAEPAXI@Z
_TEXT	SEGMENT
_this$ = -8						; size = 4
___flags$ = 8						; size = 4
??_G_Ref_count_base@tr1@std@@UAEPAXI@Z PROC		; std::tr1::_Ref_count_base::`scalar deleting destructor', COMDAT
; _this$ = ecx
	push	ebp
	mov	ebp, esp
	sub	esp, 204				; 000000ccH
	push	ebx
	push	esi
	push	edi
	push	ecx
	lea	edi, DWORD PTR [ebp-204]
	mov	ecx, 51					; 00000033H
	mov	eax, -858993460				; ccccccccH
	rep stosd
	pop	ecx
	mov	DWORD PTR _this$[ebp], ecx
	mov	ecx, DWORD PTR _this$[ebp]
	call	??1_Ref_count_base@tr1@std@@UAE@XZ	; std::tr1::_Ref_count_base::~_Ref_count_base
	mov	eax, DWORD PTR ___flags$[ebp]
	and	eax, 1
	je	SHORT $LN1@scalar
	mov	eax, DWORD PTR _this$[ebp]
	push	eax
	call	??3@YAXPAX@Z				; operator delete
	add	esp, 4
$LN1@scalar:
	mov	eax, DWORD PTR _this$[ebp]
	pop	edi
	pop	esi
	pop	ebx
	add	esp, 204				; 000000ccH
	cmp	ebp, esp
	call	__RTC_CheckEsp
	mov	esp, ebp
	pop	ebp
	ret	4
??_G_Ref_count_base@tr1@std@@UAEPAXI@Z ENDP		; std::tr1::_Ref_count_base::`scalar deleting destructor'
; Function compile flags: /Odtp /RTCsu /ZI
_TEXT	ENDS
;	COMDAT ??1_Ref_count_base@tr1@std@@UAE@XZ
_TEXT	SEGMENT
_this$ = -8						; size = 4
??1_Ref_count_base@tr1@std@@UAE@XZ PROC			; std::tr1::_Ref_count_base::~_Ref_count_base, COMDAT
; _this$ = ecx
; Line 1037
	push	ebp
	mov	ebp, esp
	sub	esp, 204				; 000000ccH
	push	ebx
	push	esi
	push	edi
	push	ecx
	lea	edi, DWORD PTR [ebp-204]
	mov	ecx, 51					; 00000033H
	mov	eax, -858993460				; ccccccccH
	rep stosd
	pop	ecx
	mov	DWORD PTR _this$[ebp], ecx
	mov	eax, DWORD PTR _this$[ebp]
	mov	DWORD PTR [eax], OFFSET ??_7_Ref_count_base@tr1@std@@6B@
; Line 1038
	pop	edi
	pop	esi
	pop	ebx
	mov	esp, ebp
	pop	ebp
	ret	0
??1_Ref_count_base@tr1@std@@UAE@XZ ENDP			; std::tr1::_Ref_count_base::~_Ref_count_base
_TEXT	ENDS
PUBLIC	??_R0?AVContextDeleter@@@8			; ContextDeleter `RTTI Type Descriptor'
EXTRN	__imp_??8type_info@@QBE_NABV0@@Z:PROC
;	COMDAT ??_R0?AVContextDeleter@@@8
_DATA	SEGMENT
??_R0?AVContextDeleter@@@8 DD FLAT:??_7type_info@@6B@	; ContextDeleter `RTTI Type Descriptor'
	DD	00H
	DB	'.?AVContextDeleter@@', 00H
; Function compile flags: /Odtp /RTCsu /ZI
_DATA	ENDS
;	COMDAT ?_Get_deleter@?$_Ref_count_del@Ulibusb_context@@VContextDeleter@@@tr1@std@@UBEPAXABVtype_info@@@Z
_TEXT	SEGMENT
tv70 = -208						; size = 4
_this$ = -8						; size = 4
__Type$ = 8						; size = 4
?_Get_deleter@?$_Ref_count_del@Ulibusb_context@@VContextDeleter@@@tr1@std@@UBEPAXABVtype_info@@@Z PROC ; std::tr1::_Ref_count_del<libusb_context,ContextDeleter>::_Get_deleter, COMDAT
; _this$ = ecx
; Line 1130
	push	ebp
	mov	ebp, esp
	sub	esp, 208				; 000000d0H
	push	ebx
	push	esi
	push	edi
	push	ecx
	lea	edi, DWORD PTR [ebp-208]
	mov	ecx, 52					; 00000034H
	mov	eax, -858993460				; ccccccccH
	rep stosd
	pop	ecx
	mov	DWORD PTR _this$[ebp], ecx
; Line 1131
	mov	esi, esp
	push	OFFSET ??_R0?AVContextDeleter@@@8
	mov	ecx, DWORD PTR __Type$[ebp]
	call	DWORD PTR __imp_??8type_info@@QBE_NABV0@@Z
	cmp	esi, esp
	call	__RTC_CheckEsp
	movzx	eax, al
	test	eax, eax
	je	SHORT $LN3@Get_delete
	mov	ecx, DWORD PTR _this$[ebp]
	add	ecx, 16					; 00000010H
	mov	DWORD PTR tv70[ebp], ecx
	jmp	SHORT $LN4@Get_delete
$LN3@Get_delete:
	mov	DWORD PTR tv70[ebp], 0
$LN4@Get_delete:
	mov	eax, DWORD PTR tv70[ebp]
; Line 1132
	pop	edi
	pop	esi
	pop	ebx
	add	esp, 208				; 000000d0H
	cmp	ebp, esp
	call	__RTC_CheckEsp
	mov	esp, ebp
	pop	ebp
	ret	4
?_Get_deleter@?$_Ref_count_del@Ulibusb_context@@VContextDeleter@@@tr1@std@@UBEPAXABVtype_info@@@Z ENDP ; std::tr1::_Ref_count_del<libusb_context,ContextDeleter>::_Get_deleter
; Function compile flags: /Odtp /RTCsu /ZI
_TEXT	ENDS
;	COMDAT ?_Destroy@?$_Ref_count_del@Ulibusb_context@@VContextDeleter@@@tr1@std@@EAEXXZ
_TEXT	SEGMENT
_this$ = -8						; size = 4
?_Destroy@?$_Ref_count_del@Ulibusb_context@@VContextDeleter@@@tr1@std@@EAEXXZ PROC ; std::tr1::_Ref_count_del<libusb_context,ContextDeleter>::_Destroy, COMDAT
; _this$ = ecx
; Line 1136
	push	ebp
	mov	ebp, esp
	sub	esp, 204				; 000000ccH
	push	ebx
	push	esi
	push	edi
	push	ecx
	lea	edi, DWORD PTR [ebp-204]
	mov	ecx, 51					; 00000033H
	mov	eax, -858993460				; ccccccccH
	rep stosd
	pop	ecx
	mov	DWORD PTR _this$[ebp], ecx
; Line 1137
	mov	eax, DWORD PTR _this$[ebp]
	mov	ecx, DWORD PTR [eax+12]
	push	ecx
	mov	ecx, DWORD PTR _this$[ebp]
	add	ecx, 16					; 00000010H
	call	??RContextDeleter@@QAEXPAUlibusb_context@@@Z ; ContextDeleter::operator()
; Line 1138
	pop	edi
	pop	esi
	pop	ebx
	add	esp, 204				; 000000ccH
	cmp	ebp, esp
	call	__RTC_CheckEsp
	mov	esp, ebp
	pop	ebp
	ret	0
?_Destroy@?$_Ref_count_del@Ulibusb_context@@VContextDeleter@@@tr1@std@@EAEXXZ ENDP ; std::tr1::_Ref_count_del<libusb_context,ContextDeleter>::_Destroy
; Function compile flags: /Odtp /RTCsu /ZI
_TEXT	ENDS
;	COMDAT ?_Delete_this@?$_Ref_count_del@Ulibusb_context@@VContextDeleter@@@tr1@std@@EAEXXZ
_TEXT	SEGMENT
tv74 = -232						; size = 4
$T82754 = -224						; size = 4
$T82755 = -212						; size = 4
_this$ = -8						; size = 4
?_Delete_this@?$_Ref_count_del@Ulibusb_context@@VContextDeleter@@@tr1@std@@EAEXXZ PROC ; std::tr1::_Ref_count_del<libusb_context,ContextDeleter>::_Delete_this, COMDAT
; _this$ = ecx
; Line 1141
	push	ebp
	mov	ebp, esp
	sub	esp, 232				; 000000e8H
	push	ebx
	push	esi
	push	edi
	push	ecx
	lea	edi, DWORD PTR [ebp-232]
	mov	ecx, 58					; 0000003aH
	mov	eax, -858993460				; ccccccccH
	rep stosd
	pop	ecx
	mov	DWORD PTR _this$[ebp], ecx
; Line 1142
	mov	eax, DWORD PTR _this$[ebp]
	mov	DWORD PTR $T82755[ebp], eax
	mov	ecx, DWORD PTR $T82755[ebp]
	mov	DWORD PTR $T82754[ebp], ecx
	cmp	DWORD PTR $T82754[ebp], 0
	je	SHORT $LN3@Delete_thi
	mov	esi, esp
	push	1
	mov	edx, DWORD PTR $T82754[ebp]
	mov	eax, DWORD PTR [edx]
	mov	ecx, DWORD PTR $T82754[ebp]
	mov	edx, DWORD PTR [eax+8]
	call	edx
	cmp	esi, esp
	call	__RTC_CheckEsp
	mov	DWORD PTR tv74[ebp], eax
	jmp	SHORT $LN1@Delete_thi
$LN3@Delete_thi:
	mov	DWORD PTR tv74[ebp], 0
$LN1@Delete_thi:
; Line 1143
	pop	edi
	pop	esi
	pop	ebx
	add	esp, 232				; 000000e8H
	cmp	ebp, esp
	call	__RTC_CheckEsp
	mov	esp, ebp
	pop	ebp
	ret	0
?_Delete_this@?$_Ref_count_del@Ulibusb_context@@VContextDeleter@@@tr1@std@@EAEXXZ ENDP ; std::tr1::_Ref_count_del<libusb_context,ContextDeleter>::_Delete_this
_TEXT	ENDS
PUBLIC	??1?$_Ref_count_del@Ulibusb_context@@VContextDeleter@@@tr1@std@@UAE@XZ ; std::tr1::_Ref_count_del<libusb_context,ContextDeleter>::~_Ref_count_del<libusb_context,ContextDeleter>
; Function compile flags: /Odtp /RTCsu /ZI
;	COMDAT ??_G?$_Ref_count_del@Ulibusb_context@@VContextDeleter@@@tr1@std@@UAEPAXI@Z
_TEXT	SEGMENT
_this$ = -8						; size = 4
___flags$ = 8						; size = 4
??_G?$_Ref_count_del@Ulibusb_context@@VContextDeleter@@@tr1@std@@UAEPAXI@Z PROC ; std::tr1::_Ref_count_del<libusb_context,ContextDeleter>::`scalar deleting destructor', COMDAT
; _this$ = ecx
	push	ebp
	mov	ebp, esp
	sub	esp, 204				; 000000ccH
	push	ebx
	push	esi
	push	edi
	push	ecx
	lea	edi, DWORD PTR [ebp-204]
	mov	ecx, 51					; 00000033H
	mov	eax, -858993460				; ccccccccH
	rep stosd
	pop	ecx
	mov	DWORD PTR _this$[ebp], ecx
	mov	ecx, DWORD PTR _this$[ebp]
	call	??1?$_Ref_count_del@Ulibusb_context@@VContextDeleter@@@tr1@std@@UAE@XZ
	mov	eax, DWORD PTR ___flags$[ebp]
	and	eax, 1
	je	SHORT $LN1@scalar@2
	mov	eax, DWORD PTR _this$[ebp]
	push	eax
	call	??3@YAXPAX@Z				; operator delete
	add	esp, 4
$LN1@scalar@2:
	mov	eax, DWORD PTR _this$[ebp]
	pop	edi
	pop	esi
	pop	ebx
	add	esp, 204				; 000000ccH
	cmp	ebp, esp
	call	__RTC_CheckEsp
	mov	esp, ebp
	pop	ebp
	ret	4
??_G?$_Ref_count_del@Ulibusb_context@@VContextDeleter@@@tr1@std@@UAEPAXI@Z ENDP ; std::tr1::_Ref_count_del<libusb_context,ContextDeleter>::`scalar deleting destructor'
; Function compile flags: /Odtp /RTCsu /ZI
_TEXT	ENDS
;	COMDAT ??1?$_Ref_count_del@Ulibusb_context@@VContextDeleter@@@tr1@std@@UAE@XZ
_TEXT	SEGMENT
_this$ = -8						; size = 4
??1?$_Ref_count_del@Ulibusb_context@@VContextDeleter@@@tr1@std@@UAE@XZ PROC ; std::tr1::_Ref_count_del<libusb_context,ContextDeleter>::~_Ref_count_del<libusb_context,ContextDeleter>, COMDAT
; _this$ = ecx
	push	ebp
	mov	ebp, esp
	sub	esp, 204				; 000000ccH
	push	ebx
	push	esi
	push	edi
	push	ecx
	lea	edi, DWORD PTR [ebp-204]
	mov	ecx, 51					; 00000033H
	mov	eax, -858993460				; ccccccccH
	rep stosd
	pop	ecx
	mov	DWORD PTR _this$[ebp], ecx
	mov	ecx, DWORD PTR _this$[ebp]
	call	??1_Ref_count_base@tr1@std@@UAE@XZ	; std::tr1::_Ref_count_base::~_Ref_count_base
	pop	edi
	pop	esi
	pop	ebx
	add	esp, 204				; 000000ccH
	cmp	ebp, esp
	call	__RTC_CheckEsp
	mov	esp, ebp
	pop	ebp
	ret	0
??1?$_Ref_count_del@Ulibusb_context@@VContextDeleter@@@tr1@std@@UAE@XZ ENDP ; std::tr1::_Ref_count_del<libusb_context,ContextDeleter>::~_Ref_count_del<libusb_context,ContextDeleter>
_TEXT	ENDS
PUBLIC	?_Enable_shared@tr1@std@@YAXPDX0@Z		; std::tr1::_Enable_shared
PUBLIC	?_Reset0@?$_Ptr_base@Ulibusb_context@@@tr1@std@@QAEXPAUlibusb_context@@PAV_Ref_count_base@23@@Z ; std::tr1::_Ptr_base<libusb_context>::_Reset0
; Function compile flags: /Odtp /RTCsu /ZI
;	COMDAT ??$_Resetp0@Ulibusb_context@@@?$shared_ptr@Ulibusb_context@@@tr1@std@@QAEXPAUlibusb_context@@PAV_Ref_count_base@12@@Z
_TEXT	SEGMENT
_this$ = -8						; size = 4
__Px$ = 8						; size = 4
__Rx$ = 12						; size = 4
??$_Resetp0@Ulibusb_context@@@?$shared_ptr@Ulibusb_context@@@tr1@std@@QAEXPAUlibusb_context@@PAV_Ref_count_base@12@@Z PROC ; std::tr1::shared_ptr<libusb_context>::_Resetp0<libusb_context>, COMDAT
; _this$ = ecx
; Line 1703
	push	ebp
	mov	ebp, esp
	sub	esp, 204				; 000000ccH
	push	ebx
	push	esi
	push	edi
	push	ecx
	lea	edi, DWORD PTR [ebp-204]
	mov	ecx, 51					; 00000033H
	mov	eax, -858993460				; ccccccccH
	rep stosd
	pop	ecx
	mov	DWORD PTR _this$[ebp], ecx
; Line 1705
	mov	eax, DWORD PTR __Rx$[ebp]
	push	eax
	mov	ecx, DWORD PTR __Px$[ebp]
	push	ecx
	mov	ecx, DWORD PTR _this$[ebp]
	call	?_Reset0@?$_Ptr_base@Ulibusb_context@@@tr1@std@@QAEXPAUlibusb_context@@PAV_Ref_count_base@23@@Z ; std::tr1::_Ptr_base<libusb_context>::_Reset0
; Line 1706
	mov	eax, DWORD PTR __Rx$[ebp]
	push	eax
	mov	ecx, DWORD PTR __Px$[ebp]
	push	ecx
	call	?_Enable_shared@tr1@std@@YAXPDX0@Z	; std::tr1::_Enable_shared
	add	esp, 8
; Line 1707
	pop	edi
	pop	esi
	pop	ebx
	add	esp, 204				; 000000ccH
	cmp	ebp, esp
	call	__RTC_CheckEsp
	mov	esp, ebp
	pop	ebp
	ret	8
??$_Resetp0@Ulibusb_context@@@?$shared_ptr@Ulibusb_context@@@tr1@std@@QAEXPAUlibusb_context@@PAV_Ref_count_base@12@@Z ENDP ; std::tr1::shared_ptr<libusb_context>::_Resetp0<libusb_context>
; Function compile flags: /Odtp /RTCsu /ZI
_TEXT	ENDS
;	COMDAT ?_Enable_shared@tr1@std@@YAXPDX0@Z
_TEXT	SEGMENT
___formal$ = 8						; size = 4
___formal$ = 12						; size = 4
?_Enable_shared@tr1@std@@YAXPDX0@Z PROC			; std::tr1::_Enable_shared, COMDAT
; Line 1212
	push	ebp
	mov	ebp, esp
	sub	esp, 192				; 000000c0H
	push	ebx
	push	esi
	push	edi
	lea	edi, DWORD PTR [ebp-192]
	mov	ecx, 48					; 00000030H
	mov	eax, -858993460				; ccccccccH
	rep stosd
; Line 1213
	pop	edi
	pop	esi
	pop	ebx
	mov	esp, ebp
	pop	ebp
	ret	0
?_Enable_shared@tr1@std@@YAXPDX0@Z ENDP			; std::tr1::_Enable_shared
; Function compile flags: /Odtp /RTCsu /ZI
_TEXT	ENDS
;	COMDAT ?_Reset0@?$_Ptr_base@Ulibusb_context@@@tr1@std@@QAEXPAUlibusb_context@@PAV_Ref_count_base@23@@Z
_TEXT	SEGMENT
_this$ = -8						; size = 4
__Other_ptr$ = 8					; size = 4
__Other_rep$ = 12					; size = 4
?_Reset0@?$_Ptr_base@Ulibusb_context@@@tr1@std@@QAEXPAUlibusb_context@@PAV_Ref_count_base@23@@Z PROC ; std::tr1::_Ptr_base<libusb_context>::_Reset0, COMDAT
; _this$ = ecx
; Line 1367
	push	ebp
	mov	ebp, esp
	sub	esp, 204				; 000000ccH
	push	ebx
	push	esi
	push	edi
	push	ecx
	lea	edi, DWORD PTR [ebp-204]
	mov	ecx, 51					; 00000033H
	mov	eax, -858993460				; ccccccccH
	rep stosd
	pop	ecx
	mov	DWORD PTR _this$[ebp], ecx
; Line 1368
	mov	eax, DWORD PTR _this$[ebp]
	cmp	DWORD PTR [eax+4], 0
	je	SHORT $LN1@Reset0
; Line 1369
	mov	eax, DWORD PTR _this$[ebp]
	mov	ecx, DWORD PTR [eax+4]
	call	?_Decref@_Ref_count_base@tr1@std@@QAEXXZ ; std::tr1::_Ref_count_base::_Decref
$LN1@Reset0:
; Line 1370
	mov	eax, DWORD PTR _this$[ebp]
	mov	ecx, DWORD PTR __Other_rep$[ebp]
	mov	DWORD PTR [eax+4], ecx
; Line 1371
	mov	eax, DWORD PTR _this$[ebp]
	mov	ecx, DWORD PTR __Other_ptr$[ebp]
	mov	DWORD PTR [eax], ecx
; Line 1372
	pop	edi
	pop	esi
	pop	ebx
	add	esp, 204				; 000000ccH
	cmp	ebp, esp
	call	__RTC_CheckEsp
	mov	esp, ebp
	pop	ebp
	ret	8
?_Reset0@?$_Ptr_base@Ulibusb_context@@@tr1@std@@QAEXPAUlibusb_context@@PAV_Ref_count_base@23@@Z ENDP ; std::tr1::_Ptr_base<libusb_context>::_Reset0
_TEXT	ENDS
PUBLIC	??0?$shared_ptr@Ulibusb_context@@@tr1@std@@QAE@XZ ; std::tr1::shared_ptr<libusb_context>::shared_ptr<libusb_context>
EXTRN	_atexit:PROC
; Function compile flags: /Odtp /RTCsu /ZI
;	COMDAT ??__E?pLibusb_context@LibUSBImpl@LibUSB@@2V?$shared_ptr@Ulibusb_context@@@tr1@std@@A@@YAXXZ
text$yc	SEGMENT
??__E?pLibusb_context@LibUSBImpl@LibUSB@@2V?$shared_ptr@Ulibusb_context@@@tr1@std@@A@@YAXXZ PROC ; `dynamic initializer for 'LibUSB::LibUSBImpl::pLibusb_context'', COMDAT
; File d:\workspace\libusb++\src\libusbimpl.cpp
; Line 34
	push	ebp
	mov	ebp, esp
	sub	esp, 192				; 000000c0H
	push	ebx
	push	esi
	push	edi
	lea	edi, DWORD PTR [ebp-192]
	mov	ecx, 48					; 00000030H
	mov	eax, -858993460				; ccccccccH
	rep stosd
	mov	ecx, OFFSET ?pLibusb_context@LibUSBImpl@LibUSB@@2V?$shared_ptr@Ulibusb_context@@@tr1@std@@A ; LibUSB::LibUSBImpl::pLibusb_context
	call	??0?$shared_ptr@Ulibusb_context@@@tr1@std@@QAE@XZ ; std::tr1::shared_ptr<libusb_context>::shared_ptr<libusb_context>
	push	OFFSET ??__F?pLibusb_context@LibUSBImpl@LibUSB@@2V?$shared_ptr@Ulibusb_context@@@tr1@std@@A@@YAXXZ ; `dynamic atexit destructor for 'LibUSB::LibUSBImpl::pLibusb_context''
	call	_atexit
	add	esp, 4
	pop	edi
	pop	esi
	pop	ebx
	add	esp, 192				; 000000c0H
	cmp	ebp, esp
	call	__RTC_CheckEsp
	mov	esp, ebp
	pop	ebp
	ret	0
??__E?pLibusb_context@LibUSBImpl@LibUSB@@2V?$shared_ptr@Ulibusb_context@@@tr1@std@@A@@YAXXZ ENDP ; `dynamic initializer for 'LibUSB::LibUSBImpl::pLibusb_context''
; Function compile flags: /Odtp /RTCsu /ZI
text$yc	ENDS
;	COMDAT ??0?$shared_ptr@Ulibusb_context@@@tr1@std@@QAE@XZ
_TEXT	SEGMENT
_this$ = -8						; size = 4
??0?$shared_ptr@Ulibusb_context@@@tr1@std@@QAE@XZ PROC	; std::tr1::shared_ptr<libusb_context>::shared_ptr<libusb_context>, COMDAT
; _this$ = ecx
; File c:\program files (x86)\microsoft visual studio 10.0\vc\include\memory
; Line 1424
	push	ebp
	mov	ebp, esp
	sub	esp, 204				; 000000ccH
	push	ebx
	push	esi
	push	edi
	push	ecx
	lea	edi, DWORD PTR [ebp-204]
	mov	ecx, 51					; 00000033H
	mov	eax, -858993460				; ccccccccH
	rep stosd
	pop	ecx
	mov	DWORD PTR _this$[ebp], ecx
	mov	ecx, DWORD PTR _this$[ebp]
	call	??0?$_Ptr_base@Ulibusb_context@@@tr1@std@@QAE@XZ ; std::tr1::_Ptr_base<libusb_context>::_Ptr_base<libusb_context>
; Line 1426
	mov	eax, DWORD PTR _this$[ebp]
	pop	edi
	pop	esi
	pop	ebx
	add	esp, 204				; 000000ccH
	cmp	ebp, esp
	call	__RTC_CheckEsp
	mov	esp, ebp
	pop	ebp
	ret	0
??0?$shared_ptr@Ulibusb_context@@@tr1@std@@QAE@XZ ENDP	; std::tr1::shared_ptr<libusb_context>::shared_ptr<libusb_context>
; Function compile flags: /Odtp /RTCsu /ZI
_TEXT	ENDS
;	COMDAT ??__F?pLibusb_context@LibUSBImpl@LibUSB@@2V?$shared_ptr@Ulibusb_context@@@tr1@std@@A@@YAXXZ
text$yd	SEGMENT
??__F?pLibusb_context@LibUSBImpl@LibUSB@@2V?$shared_ptr@Ulibusb_context@@@tr1@std@@A@@YAXXZ PROC ; `dynamic atexit destructor for 'LibUSB::LibUSBImpl::pLibusb_context'', COMDAT
	push	ebp
	mov	ebp, esp
	sub	esp, 192				; 000000c0H
	push	ebx
	push	esi
	push	edi
	lea	edi, DWORD PTR [ebp-192]
	mov	ecx, 48					; 00000030H
	mov	eax, -858993460				; ccccccccH
	rep stosd
	mov	ecx, OFFSET ?pLibusb_context@LibUSBImpl@LibUSB@@2V?$shared_ptr@Ulibusb_context@@@tr1@std@@A ; LibUSB::LibUSBImpl::pLibusb_context
	call	??1?$shared_ptr@Ulibusb_context@@@tr1@std@@QAE@XZ ; std::tr1::shared_ptr<libusb_context>::~shared_ptr<libusb_context>
	pop	edi
	pop	esi
	pop	ebx
	add	esp, 192				; 000000c0H
	cmp	ebp, esp
	call	__RTC_CheckEsp
	mov	esp, ebp
	pop	ebp
	ret	0
??__F?pLibusb_context@LibUSBImpl@LibUSB@@2V?$shared_ptr@Ulibusb_context@@@tr1@std@@A@@YAXXZ ENDP ; `dynamic atexit destructor for 'LibUSB::LibUSBImpl::pLibusb_context''
text$yd	ENDS
PUBLIC	?pLibusb_context@LibUSBImpl@LibUSB@@2V?$shared_ptr@Ulibusb_context@@@tr1@std@@A ; LibUSB::LibUSBImpl::pLibusb_context
_BSS	SEGMENT
?pLibusb_context@LibUSBImpl@LibUSB@@2V?$shared_ptr@Ulibusb_context@@@tr1@std@@A DQ 01H DUP (?) ; LibUSB::LibUSBImpl::pLibusb_context
_BSS	ENDS
CRT$XCU	SEGMENT
?pLibusb_context$initializer$@LibUSBImpl@LibUSB@@2P6AXXZA DD FLAT:??__E?pLibusb_context@LibUSBImpl@LibUSB@@2V?$shared_ptr@Ulibusb_context@@@tr1@std@@A@@YAXXZ ; LibUSB::LibUSBImpl::pLibusb_context$initializer$
CRT$XCU	ENDS
END
