; Listing generated by Microsoft (R) Optimizing Compiler Version 16.00.40219.01 

	TITLE	D:\Workspace\Libusb++\src\libusbpp.cpp
	.686P
	.XMM
	include listing.inc
	.model	flat

INCLUDELIB MSVCRTD
INCLUDELIB OLDNAMES

PUBLIC	?value@?$integral_constant@_N$0A@@tr1@std@@2_NB	; std::tr1::integral_constant<bool,0>::value
PUBLIC	?value@?$integral_constant@_N$00@tr1@std@@2_NB	; std::tr1::integral_constant<bool,1>::value
PUBLIC	?value@?$integral_constant@I$0A@@tr1@std@@2IB	; std::tr1::integral_constant<unsigned int,0>::value
PUBLIC	?_Rank@?$_Arithmetic_traits@_N@std@@2HB		; std::_Arithmetic_traits<bool>::_Rank
PUBLIC	?_Rank@?$_Arithmetic_traits@D@std@@2HB		; std::_Arithmetic_traits<char>::_Rank
PUBLIC	?_Rank@?$_Arithmetic_traits@C@std@@2HB		; std::_Arithmetic_traits<signed char>::_Rank
PUBLIC	?_Rank@?$_Arithmetic_traits@E@std@@2HB		; std::_Arithmetic_traits<unsigned char>::_Rank
PUBLIC	?_Rank@?$_Arithmetic_traits@F@std@@2HB		; std::_Arithmetic_traits<short>::_Rank
PUBLIC	?_Rank@?$_Arithmetic_traits@G@std@@2HB		; std::_Arithmetic_traits<unsigned short>::_Rank
PUBLIC	?_Rank@?$_Arithmetic_traits@H@std@@2HB		; std::_Arithmetic_traits<int>::_Rank
PUBLIC	?_Rank@?$_Arithmetic_traits@I@std@@2HB		; std::_Arithmetic_traits<unsigned int>::_Rank
PUBLIC	?_Rank@?$_Arithmetic_traits@J@std@@2HB		; std::_Arithmetic_traits<long>::_Rank
PUBLIC	?_Rank@?$_Arithmetic_traits@K@std@@2HB		; std::_Arithmetic_traits<unsigned long>::_Rank
PUBLIC	?_Rank@?$_Arithmetic_traits@_J@std@@2HB		; std::_Arithmetic_traits<__int64>::_Rank
PUBLIC	?_Rank@?$_Arithmetic_traits@_K@std@@2HB		; std::_Arithmetic_traits<unsigned __int64>::_Rank
PUBLIC	?_Rank@?$_Arithmetic_traits@M@std@@2HB		; std::_Arithmetic_traits<float>::_Rank
PUBLIC	?_Rank@?$_Arithmetic_traits@N@std@@2HB		; std::_Arithmetic_traits<double>::_Rank
PUBLIC	?_Rank@?$_Arithmetic_traits@O@std@@2HB		; std::_Arithmetic_traits<long double>::_Rank
PUBLIC	?collate@?$_Locbase@H@std@@2HB			; std::_Locbase<int>::collate
PUBLIC	?ctype@?$_Locbase@H@std@@2HB			; std::_Locbase<int>::ctype
PUBLIC	?monetary@?$_Locbase@H@std@@2HB			; std::_Locbase<int>::monetary
PUBLIC	?numeric@?$_Locbase@H@std@@2HB			; std::_Locbase<int>::numeric
PUBLIC	?time@?$_Locbase@H@std@@2HB			; std::_Locbase<int>::time
PUBLIC	?messages@?$_Locbase@H@std@@2HB			; std::_Locbase<int>::messages
PUBLIC	?all@?$_Locbase@H@std@@2HB			; std::_Locbase<int>::all
PUBLIC	?none@?$_Locbase@H@std@@2HB			; std::_Locbase<int>::none
PUBLIC	?skipws@?$_Iosb@H@std@@2W4_Fmtflags@12@B	; std::_Iosb<int>::skipws
PUBLIC	?unitbuf@?$_Iosb@H@std@@2W4_Fmtflags@12@B	; std::_Iosb<int>::unitbuf
PUBLIC	?uppercase@?$_Iosb@H@std@@2W4_Fmtflags@12@B	; std::_Iosb<int>::uppercase
PUBLIC	?showbase@?$_Iosb@H@std@@2W4_Fmtflags@12@B	; std::_Iosb<int>::showbase
PUBLIC	?showpoint@?$_Iosb@H@std@@2W4_Fmtflags@12@B	; std::_Iosb<int>::showpoint
PUBLIC	?showpos@?$_Iosb@H@std@@2W4_Fmtflags@12@B	; std::_Iosb<int>::showpos
PUBLIC	?left@?$_Iosb@H@std@@2W4_Fmtflags@12@B		; std::_Iosb<int>::left
PUBLIC	?right@?$_Iosb@H@std@@2W4_Fmtflags@12@B		; std::_Iosb<int>::right
PUBLIC	?internal@?$_Iosb@H@std@@2W4_Fmtflags@12@B	; std::_Iosb<int>::internal
PUBLIC	?dec@?$_Iosb@H@std@@2W4_Fmtflags@12@B		; std::_Iosb<int>::dec
PUBLIC	?oct@?$_Iosb@H@std@@2W4_Fmtflags@12@B		; std::_Iosb<int>::oct
PUBLIC	?hex@?$_Iosb@H@std@@2W4_Fmtflags@12@B		; std::_Iosb<int>::hex
PUBLIC	?scientific@?$_Iosb@H@std@@2W4_Fmtflags@12@B	; std::_Iosb<int>::scientific
PUBLIC	?fixed@?$_Iosb@H@std@@2W4_Fmtflags@12@B		; std::_Iosb<int>::fixed
PUBLIC	?hexfloat@?$_Iosb@H@std@@2W4_Fmtflags@12@B	; std::_Iosb<int>::hexfloat
PUBLIC	?boolalpha@?$_Iosb@H@std@@2W4_Fmtflags@12@B	; std::_Iosb<int>::boolalpha
PUBLIC	?_Stdio@?$_Iosb@H@std@@2W4_Fmtflags@12@B	; std::_Iosb<int>::_Stdio
PUBLIC	?adjustfield@?$_Iosb@H@std@@2W4_Fmtflags@12@B	; std::_Iosb<int>::adjustfield
PUBLIC	?basefield@?$_Iosb@H@std@@2W4_Fmtflags@12@B	; std::_Iosb<int>::basefield
PUBLIC	?floatfield@?$_Iosb@H@std@@2W4_Fmtflags@12@B	; std::_Iosb<int>::floatfield
PUBLIC	?goodbit@?$_Iosb@H@std@@2W4_Iostate@12@B	; std::_Iosb<int>::goodbit
PUBLIC	?eofbit@?$_Iosb@H@std@@2W4_Iostate@12@B		; std::_Iosb<int>::eofbit
PUBLIC	?failbit@?$_Iosb@H@std@@2W4_Iostate@12@B	; std::_Iosb<int>::failbit
PUBLIC	?badbit@?$_Iosb@H@std@@2W4_Iostate@12@B		; std::_Iosb<int>::badbit
PUBLIC	?_Hardfail@?$_Iosb@H@std@@2W4_Iostate@12@B	; std::_Iosb<int>::_Hardfail
PUBLIC	?in@?$_Iosb@H@std@@2W4_Openmode@12@B		; std::_Iosb<int>::in
PUBLIC	?out@?$_Iosb@H@std@@2W4_Openmode@12@B		; std::_Iosb<int>::out
PUBLIC	?ate@?$_Iosb@H@std@@2W4_Openmode@12@B		; std::_Iosb<int>::ate
PUBLIC	?app@?$_Iosb@H@std@@2W4_Openmode@12@B		; std::_Iosb<int>::app
PUBLIC	?trunc@?$_Iosb@H@std@@2W4_Openmode@12@B		; std::_Iosb<int>::trunc
PUBLIC	?_Nocreate@?$_Iosb@H@std@@2W4_Openmode@12@B	; std::_Iosb<int>::_Nocreate
PUBLIC	?_Noreplace@?$_Iosb@H@std@@2W4_Openmode@12@B	; std::_Iosb<int>::_Noreplace
PUBLIC	?binary@?$_Iosb@H@std@@2W4_Openmode@12@B	; std::_Iosb<int>::binary
PUBLIC	?beg@?$_Iosb@H@std@@2W4_Seekdir@12@B		; std::_Iosb<int>::beg
PUBLIC	?cur@?$_Iosb@H@std@@2W4_Seekdir@12@B		; std::_Iosb<int>::cur
PUBLIC	?end@?$_Iosb@H@std@@2W4_Seekdir@12@B		; std::_Iosb<int>::end
PUBLIC	?value@integral_c_tag@mpl@boost@@2HB		; boost::mpl::integral_c_tag::value
PUBLIC	?value@?$bool_@$0A@@mpl@boost@@2_NB		; boost::mpl::bool_<0>::value
PUBLIC	?value@?$bool_@$00@mpl@boost@@2_NB		; boost::mpl::bool_<1>::value
PUBLIC	?value@?$ice_or@$0A@$0A@$0A@$0A@$0A@$0A@$0A@@type_traits@boost@@2_NB ; boost::type_traits::ice_or<0,0,0,0,0,0,0>::value
PUBLIC	?value@?$int_@$00@mpl@boost@@2HB		; boost::mpl::int_<1>::value
PUBLIC	?value@?$int_@$01@mpl@boost@@2HB		; boost::mpl::int_<2>::value
PUBLIC	?value@?$int_@$02@mpl@boost@@2HB		; boost::mpl::int_<3>::value
PUBLIC	?value@?$int_@$03@mpl@boost@@2HB		; boost::mpl::int_<4>::value
PUBLIC	?value@?$int_@$04@mpl@boost@@2HB		; boost::mpl::int_<5>::value
PUBLIC	?value@?$int_@$05@mpl@boost@@2HB		; boost::mpl::int_<6>::value
PUBLIC	?value@?$int_@$06@mpl@boost@@2HB		; boost::mpl::int_<7>::value
PUBLIC	?value@?$int_@$07@mpl@boost@@2HB		; boost::mpl::int_<8>::value
PUBLIC	?value@?$int_@$08@mpl@boost@@2HB		; boost::mpl::int_<9>::value
PUBLIC	?value@?$int_@$09@mpl@boost@@2HB		; boost::mpl::int_<10>::value
PUBLIC	?value@?$int_@$0L@@mpl@boost@@2HB		; boost::mpl::int_<11>::value
PUBLIC	?value@?$int_@$0M@@mpl@boost@@2HB		; boost::mpl::int_<12>::value
PUBLIC	?value@?$arg@$0?0@mpl@boost@@2HB		; boost::mpl::arg<-1>::value
PUBLIC	?value@?$arg@$00@mpl@boost@@2HB			; boost::mpl::arg<1>::value
PUBLIC	?value@?$arg@$01@mpl@boost@@2HB			; boost::mpl::arg<2>::value
PUBLIC	?value@?$arg@$02@mpl@boost@@2HB			; boost::mpl::arg<3>::value
PUBLIC	?value@?$arg@$03@mpl@boost@@2HB			; boost::mpl::arg<4>::value
PUBLIC	?value@?$arg@$04@mpl@boost@@2HB			; boost::mpl::arg<5>::value
PUBLIC	?value@?$ice_and@$00$00$00$00$00$00$00@type_traits@boost@@2_NB ; boost::type_traits::ice_and<1,1,1,1,1,1,1>::value
PUBLIC	?value@?$ice_not@$00@type_traits@boost@@2_NB	; boost::type_traits::ice_not<1>::value
PUBLIC	?value@?$is_member_function_pointer_impl@X@detail@boost@@2_NB ; boost::detail::is_member_function_pointer_impl<void>::value
PUBLIC	?value@?$is_member_function_pointer_impl@$$CBX@detail@boost@@2_NB ; boost::detail::is_member_function_pointer_impl<void const >::value
PUBLIC	?value@?$is_member_function_pointer_impl@$$CCX@detail@boost@@2_NB ; boost::detail::is_member_function_pointer_impl<void volatile >::value
PUBLIC	?value@?$is_member_function_pointer_impl@$$CDX@detail@boost@@2_NB ; boost::detail::is_member_function_pointer_impl<void const volatile >::value
PUBLIC	?value@?$is_scalar_impl@X@detail@boost@@2_NB	; boost::detail::is_scalar_impl<void>::value
PUBLIC	?value@?$is_scalar_impl@$$CBX@detail@boost@@2_NB ; boost::detail::is_scalar_impl<void const >::value
PUBLIC	?value@?$is_scalar_impl@$$CCX@detail@boost@@2_NB ; boost::detail::is_scalar_impl<void volatile >::value
PUBLIC	?value@?$is_scalar_impl@$$CDX@detail@boost@@2_NB ; boost::detail::is_scalar_impl<void const volatile >::value
PUBLIC	?value@?$is_pod_impl@X@detail@boost@@2_NB	; boost::detail::is_pod_impl<void>::value
PUBLIC	?value@?$is_pod_impl@$$CBX@detail@boost@@2_NB	; boost::detail::is_pod_impl<void const >::value
PUBLIC	?value@?$is_pod_impl@$$CCX@detail@boost@@2_NB	; boost::detail::is_pod_impl<void volatile >::value
PUBLIC	?value@?$is_pod_impl@$$CDX@detail@boost@@2_NB	; boost::detail::is_pod_impl<void const volatile >::value
PUBLIC	?mpl_assertion_in_line_11@?$foreach_iterator@V?$list@V?$shared_ptr@VDevice@LibUSB@@@tr1@std@@V?$allocator@V?$shared_ptr@VDevice@LibUSB@@@tr1@std@@@3@@std@@U?$bool_@$0A@@mpl@boost@@@foreach_detail_@boost@@2IB ; boost::foreach_detail_::foreach_iterator<std::list<std::tr1::shared_ptr<LibUSB::Device>,std::allocator<std::tr1::shared_ptr<LibUSB::Device> > >,boost::mpl::bool_<0> >::mpl_assertion_in_line_11
PUBLIC	?value@?$is_const_rvalue_filter@V?$list@V?$shared_ptr@VDevice@LibUSB@@@tr1@std@@V?$allocator@V?$shared_ptr@VDevice@LibUSB@@@tr1@std@@@3@@std@@@detail@boost@@2_NB ; boost::detail::is_const_rvalue_filter<std::list<std::tr1::shared_ptr<LibUSB::Device>,std::allocator<std::tr1::shared_ptr<LibUSB::Device> > > >::value
PUBLIC	?value@?$is_base_and_derived_impl@Vnoncopyable@noncopyable_@boost@@V?$list@V?$shared_ptr@VDevice@LibUSB@@@tr1@std@@V?$allocator@V?$shared_ptr@VDevice@LibUSB@@@tr1@std@@@3@@std@@@detail@boost@@2_NB ; boost::detail::is_base_and_derived_impl<boost::noncopyable_::noncopyable,std::list<std::tr1::shared_ptr<LibUSB::Device>,std::allocator<std::tr1::shared_ptr<LibUSB::Device> > > >::value
PUBLIC	?is_volatile@?$cv_traits_imp@PAV?$list@V?$shared_ptr@VDevice@LibUSB@@@tr1@std@@V?$allocator@V?$shared_ptr@VDevice@LibUSB@@@tr1@std@@@3@@std@@@detail@boost@@2_NB ; boost::detail::cv_traits_imp<std::list<std::tr1::shared_ptr<LibUSB::Device>,std::allocator<std::tr1::shared_ptr<LibUSB::Device> > > *>::is_volatile
PUBLIC	?is_const@?$cv_traits_imp@PAV?$list@V?$shared_ptr@VDevice@LibUSB@@@tr1@std@@V?$allocator@V?$shared_ptr@VDevice@LibUSB@@@tr1@std@@@3@@std@@@detail@boost@@2_NB ; boost::detail::cv_traits_imp<std::list<std::tr1::shared_ptr<LibUSB::Device>,std::allocator<std::tr1::shared_ptr<LibUSB::Device> > > *>::is_const
PUBLIC	?is_volatile@?$cv_traits_imp@PAVnoncopyable@noncopyable_@boost@@@detail@boost@@2_NB ; boost::detail::cv_traits_imp<boost::noncopyable_::noncopyable *>::is_volatile
PUBLIC	?is_const@?$cv_traits_imp@PAVnoncopyable@noncopyable_@boost@@@detail@boost@@2_NB ; boost::detail::cv_traits_imp<boost::noncopyable_::noncopyable *>::is_const
PUBLIC	?value@?$is_abstract_imp@V?$list@V?$shared_ptr@VDevice@LibUSB@@@tr1@std@@V?$allocator@V?$shared_ptr@VDevice@LibUSB@@@tr1@std@@@3@@std@@@detail@boost@@2_NB ; boost::detail::is_abstract_imp<std::list<std::tr1::shared_ptr<LibUSB::Device>,std::allocator<std::tr1::shared_ptr<LibUSB::Device> > > >::value
PUBLIC	?value@?$integral_constant@I$03@tr1@std@@2IB	; std::tr1::integral_constant<unsigned int,4>::value
PUBLIC	?is_const@?$cv_traits_imp@PBV?$list@V?$shared_ptr@VDevice@LibUSB@@@tr1@std@@V?$allocator@V?$shared_ptr@VDevice@LibUSB@@@tr1@std@@@3@@std@@@detail@boost@@2_NB ; boost::detail::cv_traits_imp<std::list<std::tr1::shared_ptr<LibUSB::Device>,std::allocator<std::tr1::shared_ptr<LibUSB::Device> > > const *>::is_const
PUBLIC	?is_volatile@?$cv_traits_imp@PBV?$list@V?$shared_ptr@VDevice@LibUSB@@@tr1@std@@V?$allocator@V?$shared_ptr@VDevice@LibUSB@@@tr1@std@@@3@@std@@@detail@boost@@2_NB ; boost::detail::cv_traits_imp<std::list<std::tr1::shared_ptr<LibUSB::Device>,std::allocator<std::tr1::shared_ptr<LibUSB::Device> > > const *>::is_volatile
PUBLIC	?value@?$is_const_rvalue_filter@$$CBV?$list@V?$shared_ptr@VDevice@LibUSB@@@tr1@std@@V?$allocator@V?$shared_ptr@VDevice@LibUSB@@@tr1@std@@@3@@std@@@detail@boost@@2_NB ; boost::detail::is_const_rvalue_filter<std::list<std::tr1::shared_ptr<LibUSB::Device>,std::allocator<std::tr1::shared_ptr<LibUSB::Device> > > const >::value
PUBLIC	?value@?$is_volatile_rval_filter@$$CBV?$list@V?$shared_ptr@VDevice@LibUSB@@@tr1@std@@V?$allocator@V?$shared_ptr@VDevice@LibUSB@@@tr1@std@@@3@@std@@@detail@boost@@2_NB ; boost::detail::is_volatile_rval_filter<std::list<std::tr1::shared_ptr<LibUSB::Device>,std::allocator<std::tr1::shared_ptr<LibUSB::Device> > > const >::value
PUBLIC	?value@?$is_volatile_rval_filter@V?$list@V?$shared_ptr@VDevice@LibUSB@@@tr1@std@@V?$allocator@V?$shared_ptr@VDevice@LibUSB@@@tr1@std@@@3@@std@@@detail@boost@@2_NB ; boost::detail::is_volatile_rval_filter<std::list<std::tr1::shared_ptr<LibUSB::Device>,std::allocator<std::tr1::shared_ptr<LibUSB::Device> > > >::value
;	COMDAT ?value@?$is_volatile_rval_filter@V?$list@V?$shared_ptr@VDevice@LibUSB@@@tr1@std@@V?$allocator@V?$shared_ptr@VDevice@LibUSB@@@tr1@std@@@3@@std@@@detail@boost@@2_NB
CONST	SEGMENT
?value@?$is_volatile_rval_filter@V?$list@V?$shared_ptr@VDevice@LibUSB@@@tr1@std@@V?$allocator@V?$shared_ptr@VDevice@LibUSB@@@tr1@std@@@3@@std@@@detail@boost@@2_NB DB 00H ; boost::detail::is_volatile_rval_filter<std::list<std::tr1::shared_ptr<LibUSB::Device>,std::allocator<std::tr1::shared_ptr<LibUSB::Device> > > >::value
CONST	ENDS
;	COMDAT ?value@?$is_volatile_rval_filter@$$CBV?$list@V?$shared_ptr@VDevice@LibUSB@@@tr1@std@@V?$allocator@V?$shared_ptr@VDevice@LibUSB@@@tr1@std@@@3@@std@@@detail@boost@@2_NB
CONST	SEGMENT
?value@?$is_volatile_rval_filter@$$CBV?$list@V?$shared_ptr@VDevice@LibUSB@@@tr1@std@@V?$allocator@V?$shared_ptr@VDevice@LibUSB@@@tr1@std@@@3@@std@@@detail@boost@@2_NB DB 00H ; boost::detail::is_volatile_rval_filter<std::list<std::tr1::shared_ptr<LibUSB::Device>,std::allocator<std::tr1::shared_ptr<LibUSB::Device> > > const >::value
CONST	ENDS
;	COMDAT ?value@?$is_const_rvalue_filter@$$CBV?$list@V?$shared_ptr@VDevice@LibUSB@@@tr1@std@@V?$allocator@V?$shared_ptr@VDevice@LibUSB@@@tr1@std@@@3@@std@@@detail@boost@@2_NB
CONST	SEGMENT
?value@?$is_const_rvalue_filter@$$CBV?$list@V?$shared_ptr@VDevice@LibUSB@@@tr1@std@@V?$allocator@V?$shared_ptr@VDevice@LibUSB@@@tr1@std@@@3@@std@@@detail@boost@@2_NB DB 01H ; boost::detail::is_const_rvalue_filter<std::list<std::tr1::shared_ptr<LibUSB::Device>,std::allocator<std::tr1::shared_ptr<LibUSB::Device> > > const >::value
CONST	ENDS
;	COMDAT ?is_volatile@?$cv_traits_imp@PBV?$list@V?$shared_ptr@VDevice@LibUSB@@@tr1@std@@V?$allocator@V?$shared_ptr@VDevice@LibUSB@@@tr1@std@@@3@@std@@@detail@boost@@2_NB
CONST	SEGMENT
?is_volatile@?$cv_traits_imp@PBV?$list@V?$shared_ptr@VDevice@LibUSB@@@tr1@std@@V?$allocator@V?$shared_ptr@VDevice@LibUSB@@@tr1@std@@@3@@std@@@detail@boost@@2_NB DB 00H ; boost::detail::cv_traits_imp<std::list<std::tr1::shared_ptr<LibUSB::Device>,std::allocator<std::tr1::shared_ptr<LibUSB::Device> > > const *>::is_volatile
CONST	ENDS
;	COMDAT ?is_const@?$cv_traits_imp@PBV?$list@V?$shared_ptr@VDevice@LibUSB@@@tr1@std@@V?$allocator@V?$shared_ptr@VDevice@LibUSB@@@tr1@std@@@3@@std@@@detail@boost@@2_NB
CONST	SEGMENT
?is_const@?$cv_traits_imp@PBV?$list@V?$shared_ptr@VDevice@LibUSB@@@tr1@std@@V?$allocator@V?$shared_ptr@VDevice@LibUSB@@@tr1@std@@@3@@std@@@detail@boost@@2_NB DB 01H ; boost::detail::cv_traits_imp<std::list<std::tr1::shared_ptr<LibUSB::Device>,std::allocator<std::tr1::shared_ptr<LibUSB::Device> > > const *>::is_const
CONST	ENDS
;	COMDAT ?value@?$integral_constant@I$03@tr1@std@@2IB
CONST	SEGMENT
?value@?$integral_constant@I$03@tr1@std@@2IB DD 04H	; std::tr1::integral_constant<unsigned int,4>::value
CONST	ENDS
;	COMDAT ?value@?$is_abstract_imp@V?$list@V?$shared_ptr@VDevice@LibUSB@@@tr1@std@@V?$allocator@V?$shared_ptr@VDevice@LibUSB@@@tr1@std@@@3@@std@@@detail@boost@@2_NB
CONST	SEGMENT
?value@?$is_abstract_imp@V?$list@V?$shared_ptr@VDevice@LibUSB@@@tr1@std@@V?$allocator@V?$shared_ptr@VDevice@LibUSB@@@tr1@std@@@3@@std@@@detail@boost@@2_NB DB 00H ; boost::detail::is_abstract_imp<std::list<std::tr1::shared_ptr<LibUSB::Device>,std::allocator<std::tr1::shared_ptr<LibUSB::Device> > > >::value
CONST	ENDS
;	COMDAT ?is_const@?$cv_traits_imp@PAVnoncopyable@noncopyable_@boost@@@detail@boost@@2_NB
CONST	SEGMENT
?is_const@?$cv_traits_imp@PAVnoncopyable@noncopyable_@boost@@@detail@boost@@2_NB DB 00H ; boost::detail::cv_traits_imp<boost::noncopyable_::noncopyable *>::is_const
CONST	ENDS
;	COMDAT ?is_volatile@?$cv_traits_imp@PAVnoncopyable@noncopyable_@boost@@@detail@boost@@2_NB
CONST	SEGMENT
?is_volatile@?$cv_traits_imp@PAVnoncopyable@noncopyable_@boost@@@detail@boost@@2_NB DB 00H ; boost::detail::cv_traits_imp<boost::noncopyable_::noncopyable *>::is_volatile
CONST	ENDS
;	COMDAT ?is_const@?$cv_traits_imp@PAV?$list@V?$shared_ptr@VDevice@LibUSB@@@tr1@std@@V?$allocator@V?$shared_ptr@VDevice@LibUSB@@@tr1@std@@@3@@std@@@detail@boost@@2_NB
CONST	SEGMENT
?is_const@?$cv_traits_imp@PAV?$list@V?$shared_ptr@VDevice@LibUSB@@@tr1@std@@V?$allocator@V?$shared_ptr@VDevice@LibUSB@@@tr1@std@@@3@@std@@@detail@boost@@2_NB DB 00H ; boost::detail::cv_traits_imp<std::list<std::tr1::shared_ptr<LibUSB::Device>,std::allocator<std::tr1::shared_ptr<LibUSB::Device> > > *>::is_const
CONST	ENDS
;	COMDAT ?is_volatile@?$cv_traits_imp@PAV?$list@V?$shared_ptr@VDevice@LibUSB@@@tr1@std@@V?$allocator@V?$shared_ptr@VDevice@LibUSB@@@tr1@std@@@3@@std@@@detail@boost@@2_NB
CONST	SEGMENT
?is_volatile@?$cv_traits_imp@PAV?$list@V?$shared_ptr@VDevice@LibUSB@@@tr1@std@@V?$allocator@V?$shared_ptr@VDevice@LibUSB@@@tr1@std@@@3@@std@@@detail@boost@@2_NB DB 00H ; boost::detail::cv_traits_imp<std::list<std::tr1::shared_ptr<LibUSB::Device>,std::allocator<std::tr1::shared_ptr<LibUSB::Device> > > *>::is_volatile
CONST	ENDS
;	COMDAT ?value@?$is_base_and_derived_impl@Vnoncopyable@noncopyable_@boost@@V?$list@V?$shared_ptr@VDevice@LibUSB@@@tr1@std@@V?$allocator@V?$shared_ptr@VDevice@LibUSB@@@tr1@std@@@3@@std@@@detail@boost@@2_NB
CONST	SEGMENT
?value@?$is_base_and_derived_impl@Vnoncopyable@noncopyable_@boost@@V?$list@V?$shared_ptr@VDevice@LibUSB@@@tr1@std@@V?$allocator@V?$shared_ptr@VDevice@LibUSB@@@tr1@std@@@3@@std@@@detail@boost@@2_NB DB 00H ; boost::detail::is_base_and_derived_impl<boost::noncopyable_::noncopyable,std::list<std::tr1::shared_ptr<LibUSB::Device>,std::allocator<std::tr1::shared_ptr<LibUSB::Device> > > >::value
CONST	ENDS
;	COMDAT ?value@?$is_const_rvalue_filter@V?$list@V?$shared_ptr@VDevice@LibUSB@@@tr1@std@@V?$allocator@V?$shared_ptr@VDevice@LibUSB@@@tr1@std@@@3@@std@@@detail@boost@@2_NB
CONST	SEGMENT
?value@?$is_const_rvalue_filter@V?$list@V?$shared_ptr@VDevice@LibUSB@@@tr1@std@@V?$allocator@V?$shared_ptr@VDevice@LibUSB@@@tr1@std@@@3@@std@@@detail@boost@@2_NB DB 00H ; boost::detail::is_const_rvalue_filter<std::list<std::tr1::shared_ptr<LibUSB::Device>,std::allocator<std::tr1::shared_ptr<LibUSB::Device> > > >::value
CONST	ENDS
;	COMDAT ?mpl_assertion_in_line_11@?$foreach_iterator@V?$list@V?$shared_ptr@VDevice@LibUSB@@@tr1@std@@V?$allocator@V?$shared_ptr@VDevice@LibUSB@@@tr1@std@@@3@@std@@U?$bool_@$0A@@mpl@boost@@@foreach_detail_@boost@@2IB
CONST	SEGMENT
?mpl_assertion_in_line_11@?$foreach_iterator@V?$list@V?$shared_ptr@VDevice@LibUSB@@@tr1@std@@V?$allocator@V?$shared_ptr@VDevice@LibUSB@@@tr1@std@@@3@@std@@U?$bool_@$0A@@mpl@boost@@@foreach_detail_@boost@@2IB DD 04H ; boost::foreach_detail_::foreach_iterator<std::list<std::tr1::shared_ptr<LibUSB::Device>,std::allocator<std::tr1::shared_ptr<LibUSB::Device> > >,boost::mpl::bool_<0> >::mpl_assertion_in_line_11
CONST	ENDS
;	COMDAT ?value@?$is_pod_impl@$$CDX@detail@boost@@2_NB
CONST	SEGMENT
?value@?$is_pod_impl@$$CDX@detail@boost@@2_NB DB 01H	; boost::detail::is_pod_impl<void const volatile >::value
CONST	ENDS
;	COMDAT ?value@?$is_pod_impl@$$CCX@detail@boost@@2_NB
CONST	SEGMENT
?value@?$is_pod_impl@$$CCX@detail@boost@@2_NB DB 01H	; boost::detail::is_pod_impl<void volatile >::value
CONST	ENDS
;	COMDAT ?value@?$is_pod_impl@$$CBX@detail@boost@@2_NB
CONST	SEGMENT
?value@?$is_pod_impl@$$CBX@detail@boost@@2_NB DB 01H	; boost::detail::is_pod_impl<void const >::value
CONST	ENDS
;	COMDAT ?value@?$is_pod_impl@X@detail@boost@@2_NB
CONST	SEGMENT
?value@?$is_pod_impl@X@detail@boost@@2_NB DB 01H	; boost::detail::is_pod_impl<void>::value
CONST	ENDS
;	COMDAT ?value@?$is_scalar_impl@$$CDX@detail@boost@@2_NB
CONST	SEGMENT
?value@?$is_scalar_impl@$$CDX@detail@boost@@2_NB DB 00H	; boost::detail::is_scalar_impl<void const volatile >::value
CONST	ENDS
;	COMDAT ?value@?$is_scalar_impl@$$CCX@detail@boost@@2_NB
CONST	SEGMENT
?value@?$is_scalar_impl@$$CCX@detail@boost@@2_NB DB 00H	; boost::detail::is_scalar_impl<void volatile >::value
CONST	ENDS
;	COMDAT ?value@?$is_scalar_impl@$$CBX@detail@boost@@2_NB
CONST	SEGMENT
?value@?$is_scalar_impl@$$CBX@detail@boost@@2_NB DB 00H	; boost::detail::is_scalar_impl<void const >::value
CONST	ENDS
;	COMDAT ?value@?$is_scalar_impl@X@detail@boost@@2_NB
CONST	SEGMENT
?value@?$is_scalar_impl@X@detail@boost@@2_NB DB 00H	; boost::detail::is_scalar_impl<void>::value
CONST	ENDS
;	COMDAT ?value@?$is_member_function_pointer_impl@$$CDX@detail@boost@@2_NB
CONST	SEGMENT
?value@?$is_member_function_pointer_impl@$$CDX@detail@boost@@2_NB DB 00H ; boost::detail::is_member_function_pointer_impl<void const volatile >::value
CONST	ENDS
;	COMDAT ?value@?$is_member_function_pointer_impl@$$CCX@detail@boost@@2_NB
CONST	SEGMENT
?value@?$is_member_function_pointer_impl@$$CCX@detail@boost@@2_NB DB 00H ; boost::detail::is_member_function_pointer_impl<void volatile >::value
CONST	ENDS
;	COMDAT ?value@?$is_member_function_pointer_impl@$$CBX@detail@boost@@2_NB
CONST	SEGMENT
?value@?$is_member_function_pointer_impl@$$CBX@detail@boost@@2_NB DB 00H ; boost::detail::is_member_function_pointer_impl<void const >::value
CONST	ENDS
;	COMDAT ?value@?$is_member_function_pointer_impl@X@detail@boost@@2_NB
CONST	SEGMENT
?value@?$is_member_function_pointer_impl@X@detail@boost@@2_NB DB 00H ; boost::detail::is_member_function_pointer_impl<void>::value
CONST	ENDS
;	COMDAT ?value@?$ice_not@$00@type_traits@boost@@2_NB
CONST	SEGMENT
?value@?$ice_not@$00@type_traits@boost@@2_NB DB 00H	; boost::type_traits::ice_not<1>::value
CONST	ENDS
;	COMDAT ?value@?$ice_and@$00$00$00$00$00$00$00@type_traits@boost@@2_NB
CONST	SEGMENT
?value@?$ice_and@$00$00$00$00$00$00$00@type_traits@boost@@2_NB DB 01H ; boost::type_traits::ice_and<1,1,1,1,1,1,1>::value
CONST	ENDS
;	COMDAT ?value@?$arg@$04@mpl@boost@@2HB
CONST	SEGMENT
?value@?$arg@$04@mpl@boost@@2HB DD 05H			; boost::mpl::arg<5>::value
CONST	ENDS
;	COMDAT ?value@?$arg@$03@mpl@boost@@2HB
CONST	SEGMENT
?value@?$arg@$03@mpl@boost@@2HB DD 04H			; boost::mpl::arg<4>::value
CONST	ENDS
;	COMDAT ?value@?$arg@$02@mpl@boost@@2HB
CONST	SEGMENT
?value@?$arg@$02@mpl@boost@@2HB DD 03H			; boost::mpl::arg<3>::value
CONST	ENDS
;	COMDAT ?value@?$arg@$01@mpl@boost@@2HB
CONST	SEGMENT
?value@?$arg@$01@mpl@boost@@2HB DD 02H			; boost::mpl::arg<2>::value
CONST	ENDS
;	COMDAT ?value@?$arg@$00@mpl@boost@@2HB
CONST	SEGMENT
?value@?$arg@$00@mpl@boost@@2HB DD 01H			; boost::mpl::arg<1>::value
CONST	ENDS
;	COMDAT ?value@?$arg@$0?0@mpl@boost@@2HB
CONST	SEGMENT
?value@?$arg@$0?0@mpl@boost@@2HB DD 0ffffffffH		; boost::mpl::arg<-1>::value
CONST	ENDS
;	COMDAT ?value@?$int_@$0M@@mpl@boost@@2HB
CONST	SEGMENT
?value@?$int_@$0M@@mpl@boost@@2HB DD 0cH		; boost::mpl::int_<12>::value
CONST	ENDS
;	COMDAT ?value@?$int_@$0L@@mpl@boost@@2HB
CONST	SEGMENT
?value@?$int_@$0L@@mpl@boost@@2HB DD 0bH		; boost::mpl::int_<11>::value
CONST	ENDS
;	COMDAT ?value@?$int_@$09@mpl@boost@@2HB
CONST	SEGMENT
?value@?$int_@$09@mpl@boost@@2HB DD 0aH			; boost::mpl::int_<10>::value
CONST	ENDS
;	COMDAT ?value@?$int_@$08@mpl@boost@@2HB
CONST	SEGMENT
?value@?$int_@$08@mpl@boost@@2HB DD 09H			; boost::mpl::int_<9>::value
CONST	ENDS
;	COMDAT ?value@?$int_@$07@mpl@boost@@2HB
CONST	SEGMENT
?value@?$int_@$07@mpl@boost@@2HB DD 08H			; boost::mpl::int_<8>::value
CONST	ENDS
;	COMDAT ?value@?$int_@$06@mpl@boost@@2HB
CONST	SEGMENT
?value@?$int_@$06@mpl@boost@@2HB DD 07H			; boost::mpl::int_<7>::value
CONST	ENDS
;	COMDAT ?value@?$int_@$05@mpl@boost@@2HB
CONST	SEGMENT
?value@?$int_@$05@mpl@boost@@2HB DD 06H			; boost::mpl::int_<6>::value
CONST	ENDS
;	COMDAT ?value@?$int_@$04@mpl@boost@@2HB
CONST	SEGMENT
?value@?$int_@$04@mpl@boost@@2HB DD 05H			; boost::mpl::int_<5>::value
CONST	ENDS
;	COMDAT ?value@?$int_@$03@mpl@boost@@2HB
CONST	SEGMENT
?value@?$int_@$03@mpl@boost@@2HB DD 04H			; boost::mpl::int_<4>::value
CONST	ENDS
;	COMDAT ?value@?$int_@$02@mpl@boost@@2HB
CONST	SEGMENT
?value@?$int_@$02@mpl@boost@@2HB DD 03H			; boost::mpl::int_<3>::value
CONST	ENDS
;	COMDAT ?value@?$int_@$01@mpl@boost@@2HB
CONST	SEGMENT
?value@?$int_@$01@mpl@boost@@2HB DD 02H			; boost::mpl::int_<2>::value
CONST	ENDS
;	COMDAT ?value@?$int_@$00@mpl@boost@@2HB
CONST	SEGMENT
?value@?$int_@$00@mpl@boost@@2HB DD 01H			; boost::mpl::int_<1>::value
CONST	ENDS
;	COMDAT ?value@?$ice_or@$0A@$0A@$0A@$0A@$0A@$0A@$0A@@type_traits@boost@@2_NB
CONST	SEGMENT
?value@?$ice_or@$0A@$0A@$0A@$0A@$0A@$0A@$0A@@type_traits@boost@@2_NB DB 00H ; boost::type_traits::ice_or<0,0,0,0,0,0,0>::value
CONST	ENDS
;	COMDAT ?value@?$bool_@$00@mpl@boost@@2_NB
CONST	SEGMENT
?value@?$bool_@$00@mpl@boost@@2_NB DB 01H		; boost::mpl::bool_<1>::value
CONST	ENDS
;	COMDAT ?value@?$bool_@$0A@@mpl@boost@@2_NB
CONST	SEGMENT
?value@?$bool_@$0A@@mpl@boost@@2_NB DB 00H		; boost::mpl::bool_<0>::value
CONST	ENDS
;	COMDAT ?value@integral_c_tag@mpl@boost@@2HB
CONST	SEGMENT
?value@integral_c_tag@mpl@boost@@2HB DD 00H		; boost::mpl::integral_c_tag::value
CONST	ENDS
;	COMDAT ?end@?$_Iosb@H@std@@2W4_Seekdir@12@B
CONST	SEGMENT
?end@?$_Iosb@H@std@@2W4_Seekdir@12@B DD 02H		; std::_Iosb<int>::end
CONST	ENDS
;	COMDAT ?cur@?$_Iosb@H@std@@2W4_Seekdir@12@B
CONST	SEGMENT
?cur@?$_Iosb@H@std@@2W4_Seekdir@12@B DD 01H		; std::_Iosb<int>::cur
CONST	ENDS
;	COMDAT ?beg@?$_Iosb@H@std@@2W4_Seekdir@12@B
CONST	SEGMENT
?beg@?$_Iosb@H@std@@2W4_Seekdir@12@B DD 00H		; std::_Iosb<int>::beg
CONST	ENDS
;	COMDAT ?binary@?$_Iosb@H@std@@2W4_Openmode@12@B
CONST	SEGMENT
?binary@?$_Iosb@H@std@@2W4_Openmode@12@B DD 020H	; std::_Iosb<int>::binary
CONST	ENDS
;	COMDAT ?_Noreplace@?$_Iosb@H@std@@2W4_Openmode@12@B
CONST	SEGMENT
?_Noreplace@?$_Iosb@H@std@@2W4_Openmode@12@B DD 080H	; std::_Iosb<int>::_Noreplace
CONST	ENDS
;	COMDAT ?_Nocreate@?$_Iosb@H@std@@2W4_Openmode@12@B
CONST	SEGMENT
?_Nocreate@?$_Iosb@H@std@@2W4_Openmode@12@B DD 040H	; std::_Iosb<int>::_Nocreate
CONST	ENDS
;	COMDAT ?trunc@?$_Iosb@H@std@@2W4_Openmode@12@B
CONST	SEGMENT
?trunc@?$_Iosb@H@std@@2W4_Openmode@12@B DD 010H		; std::_Iosb<int>::trunc
CONST	ENDS
;	COMDAT ?app@?$_Iosb@H@std@@2W4_Openmode@12@B
CONST	SEGMENT
?app@?$_Iosb@H@std@@2W4_Openmode@12@B DD 08H		; std::_Iosb<int>::app
CONST	ENDS
;	COMDAT ?ate@?$_Iosb@H@std@@2W4_Openmode@12@B
CONST	SEGMENT
?ate@?$_Iosb@H@std@@2W4_Openmode@12@B DD 04H		; std::_Iosb<int>::ate
CONST	ENDS
;	COMDAT ?out@?$_Iosb@H@std@@2W4_Openmode@12@B
CONST	SEGMENT
?out@?$_Iosb@H@std@@2W4_Openmode@12@B DD 02H		; std::_Iosb<int>::out
CONST	ENDS
;	COMDAT ?in@?$_Iosb@H@std@@2W4_Openmode@12@B
CONST	SEGMENT
?in@?$_Iosb@H@std@@2W4_Openmode@12@B DD 01H		; std::_Iosb<int>::in
CONST	ENDS
;	COMDAT ?_Hardfail@?$_Iosb@H@std@@2W4_Iostate@12@B
CONST	SEGMENT
?_Hardfail@?$_Iosb@H@std@@2W4_Iostate@12@B DD 010H	; std::_Iosb<int>::_Hardfail
CONST	ENDS
;	COMDAT ?badbit@?$_Iosb@H@std@@2W4_Iostate@12@B
CONST	SEGMENT
?badbit@?$_Iosb@H@std@@2W4_Iostate@12@B DD 04H		; std::_Iosb<int>::badbit
CONST	ENDS
;	COMDAT ?failbit@?$_Iosb@H@std@@2W4_Iostate@12@B
CONST	SEGMENT
?failbit@?$_Iosb@H@std@@2W4_Iostate@12@B DD 02H		; std::_Iosb<int>::failbit
CONST	ENDS
;	COMDAT ?eofbit@?$_Iosb@H@std@@2W4_Iostate@12@B
CONST	SEGMENT
?eofbit@?$_Iosb@H@std@@2W4_Iostate@12@B DD 01H		; std::_Iosb<int>::eofbit
CONST	ENDS
;	COMDAT ?goodbit@?$_Iosb@H@std@@2W4_Iostate@12@B
CONST	SEGMENT
?goodbit@?$_Iosb@H@std@@2W4_Iostate@12@B DD 00H		; std::_Iosb<int>::goodbit
CONST	ENDS
;	COMDAT ?floatfield@?$_Iosb@H@std@@2W4_Fmtflags@12@B
CONST	SEGMENT
?floatfield@?$_Iosb@H@std@@2W4_Fmtflags@12@B DD 03000H	; std::_Iosb<int>::floatfield
CONST	ENDS
;	COMDAT ?basefield@?$_Iosb@H@std@@2W4_Fmtflags@12@B
CONST	SEGMENT
?basefield@?$_Iosb@H@std@@2W4_Fmtflags@12@B DD 0e00H	; std::_Iosb<int>::basefield
CONST	ENDS
;	COMDAT ?adjustfield@?$_Iosb@H@std@@2W4_Fmtflags@12@B
CONST	SEGMENT
?adjustfield@?$_Iosb@H@std@@2W4_Fmtflags@12@B DD 01c0H	; std::_Iosb<int>::adjustfield
CONST	ENDS
;	COMDAT ?_Stdio@?$_Iosb@H@std@@2W4_Fmtflags@12@B
CONST	SEGMENT
?_Stdio@?$_Iosb@H@std@@2W4_Fmtflags@12@B DD 08000H	; std::_Iosb<int>::_Stdio
CONST	ENDS
;	COMDAT ?boolalpha@?$_Iosb@H@std@@2W4_Fmtflags@12@B
CONST	SEGMENT
?boolalpha@?$_Iosb@H@std@@2W4_Fmtflags@12@B DD 04000H	; std::_Iosb<int>::boolalpha
CONST	ENDS
;	COMDAT ?hexfloat@?$_Iosb@H@std@@2W4_Fmtflags@12@B
CONST	SEGMENT
?hexfloat@?$_Iosb@H@std@@2W4_Fmtflags@12@B DD 03000H	; std::_Iosb<int>::hexfloat
CONST	ENDS
;	COMDAT ?fixed@?$_Iosb@H@std@@2W4_Fmtflags@12@B
CONST	SEGMENT
?fixed@?$_Iosb@H@std@@2W4_Fmtflags@12@B DD 02000H	; std::_Iosb<int>::fixed
CONST	ENDS
;	COMDAT ?scientific@?$_Iosb@H@std@@2W4_Fmtflags@12@B
CONST	SEGMENT
?scientific@?$_Iosb@H@std@@2W4_Fmtflags@12@B DD 01000H	; std::_Iosb<int>::scientific
CONST	ENDS
;	COMDAT ?hex@?$_Iosb@H@std@@2W4_Fmtflags@12@B
CONST	SEGMENT
?hex@?$_Iosb@H@std@@2W4_Fmtflags@12@B DD 0800H		; std::_Iosb<int>::hex
CONST	ENDS
;	COMDAT ?oct@?$_Iosb@H@std@@2W4_Fmtflags@12@B
CONST	SEGMENT
?oct@?$_Iosb@H@std@@2W4_Fmtflags@12@B DD 0400H		; std::_Iosb<int>::oct
CONST	ENDS
;	COMDAT ?dec@?$_Iosb@H@std@@2W4_Fmtflags@12@B
CONST	SEGMENT
?dec@?$_Iosb@H@std@@2W4_Fmtflags@12@B DD 0200H		; std::_Iosb<int>::dec
CONST	ENDS
;	COMDAT ?internal@?$_Iosb@H@std@@2W4_Fmtflags@12@B
CONST	SEGMENT
?internal@?$_Iosb@H@std@@2W4_Fmtflags@12@B DD 0100H	; std::_Iosb<int>::internal
CONST	ENDS
;	COMDAT ?right@?$_Iosb@H@std@@2W4_Fmtflags@12@B
CONST	SEGMENT
?right@?$_Iosb@H@std@@2W4_Fmtflags@12@B DD 080H		; std::_Iosb<int>::right
CONST	ENDS
;	COMDAT ?left@?$_Iosb@H@std@@2W4_Fmtflags@12@B
CONST	SEGMENT
?left@?$_Iosb@H@std@@2W4_Fmtflags@12@B DD 040H		; std::_Iosb<int>::left
CONST	ENDS
;	COMDAT ?showpos@?$_Iosb@H@std@@2W4_Fmtflags@12@B
CONST	SEGMENT
?showpos@?$_Iosb@H@std@@2W4_Fmtflags@12@B DD 020H	; std::_Iosb<int>::showpos
CONST	ENDS
;	COMDAT ?showpoint@?$_Iosb@H@std@@2W4_Fmtflags@12@B
CONST	SEGMENT
?showpoint@?$_Iosb@H@std@@2W4_Fmtflags@12@B DD 010H	; std::_Iosb<int>::showpoint
CONST	ENDS
;	COMDAT ?showbase@?$_Iosb@H@std@@2W4_Fmtflags@12@B
CONST	SEGMENT
?showbase@?$_Iosb@H@std@@2W4_Fmtflags@12@B DD 08H	; std::_Iosb<int>::showbase
CONST	ENDS
;	COMDAT ?uppercase@?$_Iosb@H@std@@2W4_Fmtflags@12@B
CONST	SEGMENT
?uppercase@?$_Iosb@H@std@@2W4_Fmtflags@12@B DD 04H	; std::_Iosb<int>::uppercase
CONST	ENDS
;	COMDAT ?unitbuf@?$_Iosb@H@std@@2W4_Fmtflags@12@B
CONST	SEGMENT
?unitbuf@?$_Iosb@H@std@@2W4_Fmtflags@12@B DD 02H	; std::_Iosb<int>::unitbuf
CONST	ENDS
;	COMDAT ?skipws@?$_Iosb@H@std@@2W4_Fmtflags@12@B
CONST	SEGMENT
?skipws@?$_Iosb@H@std@@2W4_Fmtflags@12@B DD 01H		; std::_Iosb<int>::skipws
CONST	ENDS
;	COMDAT ?none@?$_Locbase@H@std@@2HB
CONST	SEGMENT
?none@?$_Locbase@H@std@@2HB DD 00H			; std::_Locbase<int>::none
CONST	ENDS
;	COMDAT ?all@?$_Locbase@H@std@@2HB
CONST	SEGMENT
?all@?$_Locbase@H@std@@2HB DD 03fH			; std::_Locbase<int>::all
CONST	ENDS
;	COMDAT ?messages@?$_Locbase@H@std@@2HB
CONST	SEGMENT
?messages@?$_Locbase@H@std@@2HB DD 020H			; std::_Locbase<int>::messages
CONST	ENDS
;	COMDAT ?time@?$_Locbase@H@std@@2HB
CONST	SEGMENT
?time@?$_Locbase@H@std@@2HB DD 010H			; std::_Locbase<int>::time
CONST	ENDS
;	COMDAT ?numeric@?$_Locbase@H@std@@2HB
CONST	SEGMENT
?numeric@?$_Locbase@H@std@@2HB DD 08H			; std::_Locbase<int>::numeric
CONST	ENDS
;	COMDAT ?monetary@?$_Locbase@H@std@@2HB
CONST	SEGMENT
?monetary@?$_Locbase@H@std@@2HB DD 04H			; std::_Locbase<int>::monetary
CONST	ENDS
;	COMDAT ?ctype@?$_Locbase@H@std@@2HB
CONST	SEGMENT
?ctype@?$_Locbase@H@std@@2HB DD 02H			; std::_Locbase<int>::ctype
CONST	ENDS
;	COMDAT ?collate@?$_Locbase@H@std@@2HB
CONST	SEGMENT
?collate@?$_Locbase@H@std@@2HB DD 01H			; std::_Locbase<int>::collate
CONST	ENDS
;	COMDAT ?_Rank@?$_Arithmetic_traits@O@std@@2HB
CONST	SEGMENT
?_Rank@?$_Arithmetic_traits@O@std@@2HB DD 09H		; std::_Arithmetic_traits<long double>::_Rank
CONST	ENDS
;	COMDAT ?_Rank@?$_Arithmetic_traits@N@std@@2HB
CONST	SEGMENT
?_Rank@?$_Arithmetic_traits@N@std@@2HB DD 08H		; std::_Arithmetic_traits<double>::_Rank
CONST	ENDS
;	COMDAT ?_Rank@?$_Arithmetic_traits@M@std@@2HB
CONST	SEGMENT
?_Rank@?$_Arithmetic_traits@M@std@@2HB DD 07H		; std::_Arithmetic_traits<float>::_Rank
CONST	ENDS
;	COMDAT ?_Rank@?$_Arithmetic_traits@_K@std@@2HB
CONST	SEGMENT
?_Rank@?$_Arithmetic_traits@_K@std@@2HB DD 06H		; std::_Arithmetic_traits<unsigned __int64>::_Rank
CONST	ENDS
;	COMDAT ?_Rank@?$_Arithmetic_traits@_J@std@@2HB
CONST	SEGMENT
?_Rank@?$_Arithmetic_traits@_J@std@@2HB DD 06H		; std::_Arithmetic_traits<__int64>::_Rank
CONST	ENDS
;	COMDAT ?_Rank@?$_Arithmetic_traits@K@std@@2HB
CONST	SEGMENT
?_Rank@?$_Arithmetic_traits@K@std@@2HB DD 05H		; std::_Arithmetic_traits<unsigned long>::_Rank
CONST	ENDS
;	COMDAT ?_Rank@?$_Arithmetic_traits@J@std@@2HB
CONST	SEGMENT
?_Rank@?$_Arithmetic_traits@J@std@@2HB DD 05H		; std::_Arithmetic_traits<long>::_Rank
CONST	ENDS
;	COMDAT ?_Rank@?$_Arithmetic_traits@I@std@@2HB
CONST	SEGMENT
?_Rank@?$_Arithmetic_traits@I@std@@2HB DD 04H		; std::_Arithmetic_traits<unsigned int>::_Rank
CONST	ENDS
;	COMDAT ?_Rank@?$_Arithmetic_traits@H@std@@2HB
CONST	SEGMENT
?_Rank@?$_Arithmetic_traits@H@std@@2HB DD 04H		; std::_Arithmetic_traits<int>::_Rank
CONST	ENDS
;	COMDAT ?_Rank@?$_Arithmetic_traits@G@std@@2HB
CONST	SEGMENT
?_Rank@?$_Arithmetic_traits@G@std@@2HB DD 03H		; std::_Arithmetic_traits<unsigned short>::_Rank
CONST	ENDS
;	COMDAT ?_Rank@?$_Arithmetic_traits@F@std@@2HB
CONST	SEGMENT
?_Rank@?$_Arithmetic_traits@F@std@@2HB DD 03H		; std::_Arithmetic_traits<short>::_Rank
CONST	ENDS
;	COMDAT ?_Rank@?$_Arithmetic_traits@E@std@@2HB
CONST	SEGMENT
?_Rank@?$_Arithmetic_traits@E@std@@2HB DD 02H		; std::_Arithmetic_traits<unsigned char>::_Rank
CONST	ENDS
;	COMDAT ?_Rank@?$_Arithmetic_traits@C@std@@2HB
CONST	SEGMENT
?_Rank@?$_Arithmetic_traits@C@std@@2HB DD 02H		; std::_Arithmetic_traits<signed char>::_Rank
CONST	ENDS
;	COMDAT ?_Rank@?$_Arithmetic_traits@D@std@@2HB
CONST	SEGMENT
?_Rank@?$_Arithmetic_traits@D@std@@2HB DD 02H		; std::_Arithmetic_traits<char>::_Rank
CONST	ENDS
;	COMDAT ?_Rank@?$_Arithmetic_traits@_N@std@@2HB
CONST	SEGMENT
?_Rank@?$_Arithmetic_traits@_N@std@@2HB DD 01H		; std::_Arithmetic_traits<bool>::_Rank
CONST	ENDS
;	COMDAT ?value@?$integral_constant@I$0A@@tr1@std@@2IB
CONST	SEGMENT
?value@?$integral_constant@I$0A@@tr1@std@@2IB DD 00H	; std::tr1::integral_constant<unsigned int,0>::value
CONST	ENDS
;	COMDAT ?value@?$integral_constant@_N$00@tr1@std@@2_NB
CONST	SEGMENT
?value@?$integral_constant@_N$00@tr1@std@@2_NB DB 01H	; std::tr1::integral_constant<bool,1>::value
CONST	ENDS
;	COMDAT ?value@?$integral_constant@_N$0A@@tr1@std@@2_NB
CONST	SEGMENT
?value@?$integral_constant@_N$0A@@tr1@std@@2_NB DB 00H	; std::tr1::integral_constant<bool,0>::value
CONST	ENDS
PUBLIC	??1?$list@V?$shared_ptr@VDevice@LibUSB@@@tr1@std@@V?$allocator@V?$shared_ptr@VDevice@LibUSB@@@tr1@std@@@3@@std@@QAE@XZ ; std::list<std::tr1::shared_ptr<LibUSB::Device>,std::allocator<std::tr1::shared_ptr<LibUSB::Device> > >::~list<std::tr1::shared_ptr<LibUSB::Device>,std::allocator<std::tr1::shared_ptr<LibUSB::Device> > >
PUBLIC	??0?$list@V?$shared_ptr@VDevice@LibUSB@@@tr1@std@@V?$allocator@V?$shared_ptr@VDevice@LibUSB@@@tr1@std@@@3@@std@@QAE@$$QAV01@@Z ; std::list<std::tr1::shared_ptr<LibUSB::Device>,std::allocator<std::tr1::shared_ptr<LibUSB::Device> > >::list<std::tr1::shared_ptr<LibUSB::Device>,std::allocator<std::tr1::shared_ptr<LibUSB::Device> > >
PUBLIC	?push_back@?$list@V?$shared_ptr@VDevice@LibUSB@@@tr1@std@@V?$allocator@V?$shared_ptr@VDevice@LibUSB@@@tr1@std@@@3@@std@@QAEXABV?$shared_ptr@VDevice@LibUSB@@@tr1@2@@Z ; std::list<std::tr1::shared_ptr<LibUSB::Device>,std::allocator<std::tr1::shared_ptr<LibUSB::Device> > >::push_back
PUBLIC	??C?$shared_ptr@VDevice@LibUSB@@@tr1@std@@QBEPAVDevice@LibUSB@@XZ ; std::tr1::shared_ptr<LibUSB::Device>::operator->
PUBLIC	??$reset@VDevice@LibUSB@@@?$shared_ptr@VDevice@LibUSB@@@tr1@std@@QAEXPAVDevice@LibUSB@@@Z ; std::tr1::shared_ptr<LibUSB::Device>::reset<LibUSB::Device>
PUBLIC	??1?$shared_ptr@VDevice@LibUSB@@@tr1@std@@QAE@XZ ; std::tr1::shared_ptr<LibUSB::Device>::~shared_ptr<LibUSB::Device>
PUBLIC	??4?$shared_ptr@VDevice@LibUSB@@@tr1@std@@QAEAAV012@$$QAV012@@Z ; std::tr1::shared_ptr<LibUSB::Device>::operator=
PUBLIC	??$make_shared@VDeviceImpl@LibUSB@@AAPAUlibusb_device@@@tr1@std@@YA?AV?$shared_ptr@VDeviceImpl@LibUSB@@@01@AAPAUlibusb_device@@@Z ; std::tr1::make_shared<LibUSB::DeviceImpl,libusb_device * &>
PUBLIC	??0?$shared_ptr@VDevice@LibUSB@@@tr1@std@@QAE@XZ ; std::tr1::shared_ptr<LibUSB::Device>::shared_ptr<LibUSB::Device>
PUBLIC	??0?$list@V?$shared_ptr@VDevice@LibUSB@@@tr1@std@@V?$allocator@V?$shared_ptr@VDevice@LibUSB@@@tr1@std@@@3@@std@@QAE@XZ ; std::list<std::tr1::shared_ptr<LibUSB::Device>,std::allocator<std::tr1::shared_ptr<LibUSB::Device> > >::list<std::tr1::shared_ptr<LibUSB::Device>,std::allocator<std::tr1::shared_ptr<LibUSB::Device> > >
PUBLIC	?get@?$shared_ptr@Ulibusb_context@@@tr1@std@@QBEPAUlibusb_context@@XZ ; std::tr1::shared_ptr<libusb_context>::get
PUBLIC	??C?$shared_ptr@VLibUSBImpl@LibUSB@@@tr1@std@@QBEPAVLibUSBImpl@LibUSB@@XZ ; std::tr1::shared_ptr<LibUSB::LibUSBImpl>::operator->
PUBLIC	?Initialize@LibUSB@1@CAXXZ			; LibUSB::LibUSB::Initialize
PUBLIC	?FindDevice@LibUSB@1@SA?AV?$list@V?$shared_ptr@VDevice@LibUSB@@@tr1@std@@V?$allocator@V?$shared_ptr@VDevice@LibUSB@@@tr1@std@@@3@@std@@GGP6A?AV?$shared_ptr@VDevice@LibUSB@@@tr1@3@V?$shared_ptr@VDeviceImpl@LibUSB@@@53@@Z@Z ; LibUSB::LibUSB::FindDevice
EXTRN	??3@YAXPAX@Z:PROC				; operator delete
EXTRN	_libusb_free_device_list@8:PROC
EXTRN	?productID@Device@LibUSB@@QAEGXZ:PROC		; LibUSB::Device::productID
EXTRN	?vendorID@Device@LibUSB@@QAEGXZ:PROC		; LibUSB::Device::vendorID
EXTRN	??0Device@LibUSB@@QAE@V?$shared_ptr@VDeviceImpl@LibUSB@@@tr1@std@@@Z:PROC ; LibUSB::Device::Device
EXTRN	??2@YAPAXI@Z:PROC				; operator new
EXTRN	_libusb_get_device_list@8:PROC
EXTRN	?pLibusb_context@LibUSBImpl@LibUSB@@2V?$shared_ptr@Ulibusb_context@@@tr1@std@@A:QWORD ; LibUSB::LibUSBImpl::pLibusb_context
EXTRN	___security_cookie:DWORD
EXTRN	___CxxFrameHandler3:PROC
EXTRN	@__security_check_cookie@4:PROC
EXTRN	__RTC_CheckEsp:PROC
EXTRN	@_RTC_CheckStackVars@8:PROC
EXTRN	__RTC_Shutdown:PROC
EXTRN	__RTC_InitBase:PROC
;	COMDAT xdata$x
; File d:\workspace\libusb++\src\libusbpp.cpp
xdata$x	SEGMENT
__ehfuncinfo$?FindDevice@LibUSB@1@SA?AV?$list@V?$shared_ptr@VDevice@LibUSB@@@tr1@std@@V?$allocator@V?$shared_ptr@VDevice@LibUSB@@@tr1@std@@@3@@std@@GGP6A?AV?$shared_ptr@VDevice@LibUSB@@@tr1@3@V?$shared_ptr@VDeviceImpl@LibUSB@@@53@@Z@Z DD 019930522H
	DD	05H
	DD	FLAT:__unwindtable$?FindDevice@LibUSB@1@SA?AV?$list@V?$shared_ptr@VDevice@LibUSB@@@tr1@std@@V?$allocator@V?$shared_ptr@VDevice@LibUSB@@@tr1@std@@@3@@std@@GGP6A?AV?$shared_ptr@VDevice@LibUSB@@@tr1@3@V?$shared_ptr@VDeviceImpl@LibUSB@@@53@@Z@Z
	DD	2 DUP(00H)
	DD	2 DUP(00H)
	DD	00H
	DD	01H
__unwindtable$?FindDevice@LibUSB@1@SA?AV?$list@V?$shared_ptr@VDevice@LibUSB@@@tr1@std@@V?$allocator@V?$shared_ptr@VDevice@LibUSB@@@tr1@std@@@3@@std@@GGP6A?AV?$shared_ptr@VDevice@LibUSB@@@tr1@3@V?$shared_ptr@VDeviceImpl@LibUSB@@@53@@Z@Z DD 0ffffffffH
	DD	FLAT:__unwindfunclet$?FindDevice@LibUSB@1@SA?AV?$list@V?$shared_ptr@VDevice@LibUSB@@@tr1@std@@V?$allocator@V?$shared_ptr@VDevice@LibUSB@@@tr1@std@@@3@@std@@GGP6A?AV?$shared_ptr@VDevice@LibUSB@@@tr1@3@V?$shared_ptr@VDeviceImpl@LibUSB@@@53@@Z@Z$6
	DD	00H
	DD	FLAT:__unwindfunclet$?FindDevice@LibUSB@1@SA?AV?$list@V?$shared_ptr@VDevice@LibUSB@@@tr1@std@@V?$allocator@V?$shared_ptr@VDevice@LibUSB@@@tr1@std@@@3@@std@@GGP6A?AV?$shared_ptr@VDevice@LibUSB@@@tr1@3@V?$shared_ptr@VDeviceImpl@LibUSB@@@53@@Z@Z$0
	DD	01H
	DD	FLAT:__unwindfunclet$?FindDevice@LibUSB@1@SA?AV?$list@V?$shared_ptr@VDevice@LibUSB@@@tr1@std@@V?$allocator@V?$shared_ptr@VDevice@LibUSB@@@tr1@std@@@3@@std@@GGP6A?AV?$shared_ptr@VDevice@LibUSB@@@tr1@3@V?$shared_ptr@VDeviceImpl@LibUSB@@@53@@Z@Z$1
	DD	02H
	DD	FLAT:__unwindfunclet$?FindDevice@LibUSB@1@SA?AV?$list@V?$shared_ptr@VDevice@LibUSB@@@tr1@std@@V?$allocator@V?$shared_ptr@VDevice@LibUSB@@@tr1@std@@@3@@std@@GGP6A?AV?$shared_ptr@VDevice@LibUSB@@@tr1@3@V?$shared_ptr@VDeviceImpl@LibUSB@@@53@@Z@Z$3
	DD	02H
	DD	FLAT:__unwindfunclet$?FindDevice@LibUSB@1@SA?AV?$list@V?$shared_ptr@VDevice@LibUSB@@@tr1@std@@V?$allocator@V?$shared_ptr@VDevice@LibUSB@@@tr1@std@@@3@@std@@GGP6A?AV?$shared_ptr@VDevice@LibUSB@@@tr1@3@V?$shared_ptr@VDeviceImpl@LibUSB@@@53@@Z@Z$4
xdata$x	ENDS
;	COMDAT rtc$TMZ
rtc$TMZ	SEGMENT
__RTC_Shutdown.rtc$TMZ DD FLAT:__RTC_Shutdown
rtc$TMZ	ENDS
;	COMDAT rtc$IMZ
rtc$IMZ	SEGMENT
__RTC_InitBase.rtc$IMZ DD FLAT:__RTC_InitBase
; Function compile flags: /Odtp /RTCsu /ZI
rtc$IMZ	ENDS
;	COMDAT ?FindDevice@LibUSB@1@SA?AV?$list@V?$shared_ptr@VDevice@LibUSB@@@tr1@std@@V?$allocator@V?$shared_ptr@VDevice@LibUSB@@@tr1@std@@@3@@std@@GGP6A?AV?$shared_ptr@VDevice@LibUSB@@@tr1@3@V?$shared_ptr@VDeviceImpl@LibUSB@@@53@@Z@Z
_TEXT	SEGMENT
tv186 = -368						; size = 4
tv157 = -368						; size = 4
tv190 = -364						; size = 4
tv184 = -364						; size = 4
tv189 = -360						; size = 4
tv183 = -360						; size = 4
$T130463 = -352						; size = 4
$T130464 = -340						; size = 8
$T130465 = -324						; size = 4
$T130466 = -312						; size = 4
$T130467 = -300						; size = 4
$T130483 = -288						; size = 4
_pDevice$120609 = -84					; size = 8
_i$120360 = -68						; size = 4
_deviceList$ = -56					; size = 16
_NumResults$ = -32					; size = 4
_device_list$ = -20					; size = 4
__$EHRec$ = -12						; size = 12
___$ReturnUdt$ = 8					; size = 4
_vendorID$ = 12						; size = 2
_productID$ = 16					; size = 2
_factory$ = 20						; size = 4
?FindDevice@LibUSB@1@SA?AV?$list@V?$shared_ptr@VDevice@LibUSB@@@tr1@std@@V?$allocator@V?$shared_ptr@VDevice@LibUSB@@@tr1@std@@@3@@std@@GGP6A?AV?$shared_ptr@VDevice@LibUSB@@@tr1@3@V?$shared_ptr@VDeviceImpl@LibUSB@@@53@@Z@Z PROC ; LibUSB::LibUSB::FindDevice, COMDAT
; Line 10
	push	ebp
	mov	ebp, esp
	push	-1
	push	__ehhandler$?FindDevice@LibUSB@1@SA?AV?$list@V?$shared_ptr@VDevice@LibUSB@@@tr1@std@@V?$allocator@V?$shared_ptr@VDevice@LibUSB@@@tr1@std@@@3@@std@@GGP6A?AV?$shared_ptr@VDevice@LibUSB@@@tr1@3@V?$shared_ptr@VDeviceImpl@LibUSB@@@53@@Z@Z
	mov	eax, DWORD PTR fs:0
	push	eax
	sub	esp, 356				; 00000164H
	push	ebx
	push	esi
	push	edi
	lea	edi, DWORD PTR [ebp-368]
	mov	ecx, 89					; 00000059H
	mov	eax, -858993460				; ccccccccH
	rep stosd
	mov	eax, DWORD PTR ___security_cookie
	xor	eax, ebp
	push	eax
	lea	eax, DWORD PTR __$EHRec$[ebp]
	mov	DWORD PTR fs:0, eax
	mov	DWORD PTR $T130483[ebp], 0
; Line 13
	call	?Initialize@LibUSB@1@CAXXZ		; LibUSB::LibUSB::Initialize
; Line 16
	mov	DWORD PTR _device_list$[ebp], 0
; Line 18
	mov	ecx, OFFSET ?Impl_@LibUSB@1@0V?$shared_ptr@VLibUSBImpl@LibUSB@@@tr1@std@@A ; LibUSB::LibUSB::Impl_
	call	??C?$shared_ptr@VLibUSBImpl@LibUSB@@@tr1@std@@QBEPAVLibUSBImpl@LibUSB@@XZ ; std::tr1::shared_ptr<LibUSB::LibUSBImpl>::operator->
	lea	eax, DWORD PTR _device_list$[ebp]
	push	eax
	mov	ecx, OFFSET ?pLibusb_context@LibUSBImpl@LibUSB@@2V?$shared_ptr@Ulibusb_context@@@tr1@std@@A ; LibUSB::LibUSBImpl::pLibusb_context
	call	?get@?$shared_ptr@Ulibusb_context@@@tr1@std@@QBEPAUlibusb_context@@XZ ; std::tr1::shared_ptr<libusb_context>::get
	push	eax
	call	_libusb_get_device_list@8
	mov	DWORD PTR _NumResults$[ebp], eax
; Line 22
	lea	ecx, DWORD PTR _deviceList$[ebp]
	call	??0?$list@V?$shared_ptr@VDevice@LibUSB@@@tr1@std@@V?$allocator@V?$shared_ptr@VDevice@LibUSB@@@tr1@std@@@3@@std@@QAE@XZ ; std::list<std::tr1::shared_ptr<LibUSB::Device>,std::allocator<std::tr1::shared_ptr<LibUSB::Device> > >::list<std::tr1::shared_ptr<LibUSB::Device>,std::allocator<std::tr1::shared_ptr<LibUSB::Device> > >
	mov	DWORD PTR __$EHRec$[ebp+8], 1
; Line 24
	mov	DWORD PTR _i$120360[ebp], 0
	jmp	SHORT $LN6@FindDevice
$LN5@FindDevice:
	mov	eax, DWORD PTR _i$120360[ebp]
	add	eax, 1
	mov	DWORD PTR _i$120360[ebp], eax
$LN6@FindDevice:
	mov	eax, DWORD PTR _i$120360[ebp]
	cmp	eax, DWORD PTR _NumResults$[ebp]
	jge	$LN4@FindDevice
; Line 28
	lea	ecx, DWORD PTR _pDevice$120609[ebp]
	call	??0?$shared_ptr@VDevice@LibUSB@@@tr1@std@@QAE@XZ ; std::tr1::shared_ptr<LibUSB::Device>::shared_ptr<LibUSB::Device>
	mov	BYTE PTR __$EHRec$[ebp+8], 2
; Line 29
	cmp	DWORD PTR _factory$[ebp], 0
	je	SHORT $LN3@FindDevice
; Line 31
	mov	eax, DWORD PTR _i$120360[ebp]
	mov	ecx, DWORD PTR _device_list$[ebp]
	lea	edx, DWORD PTR [ecx+eax*4]
	sub	esp, 8
	mov	eax, esp
	mov	DWORD PTR $T130463[ebp], esp
	push	edx
	push	eax
	call	??$make_shared@VDeviceImpl@LibUSB@@AAPAUlibusb_device@@@tr1@std@@YA?AV?$shared_ptr@VDeviceImpl@LibUSB@@@01@AAPAUlibusb_device@@@Z ; std::tr1::make_shared<LibUSB::DeviceImpl,libusb_device * &>
	add	esp, 8
	mov	DWORD PTR tv183[ebp], eax
	lea	ecx, DWORD PTR $T130464[ebp]
	push	ecx
	call	DWORD PTR _factory$[ebp]
	add	esp, 12					; 0000000cH
	mov	DWORD PTR tv184[ebp], eax
	mov	edx, DWORD PTR tv184[ebp]
	mov	DWORD PTR tv186[ebp], edx
	mov	BYTE PTR __$EHRec$[ebp+8], 3
	mov	eax, DWORD PTR tv186[ebp]
	push	eax
	lea	ecx, DWORD PTR _pDevice$120609[ebp]
	call	??4?$shared_ptr@VDevice@LibUSB@@@tr1@std@@QAEAAV012@$$QAV012@@Z ; std::tr1::shared_ptr<LibUSB::Device>::operator=
	mov	BYTE PTR __$EHRec$[ebp+8], 2
	lea	ecx, DWORD PTR $T130464[ebp]
	call	??1?$shared_ptr@VDevice@LibUSB@@@tr1@std@@QAE@XZ ; std::tr1::shared_ptr<LibUSB::Device>::~shared_ptr<LibUSB::Device>
; Line 33
	jmp	$LN2@FindDevice
$LN3@FindDevice:
; Line 35
	push	20					; 00000014H
	call	??2@YAPAXI@Z				; operator new
	add	esp, 4
	mov	DWORD PTR $T130466[ebp], eax
	mov	BYTE PTR __$EHRec$[ebp+8], 4
	cmp	DWORD PTR $T130466[ebp], 0
	je	SHORT $LN9@FindDevice
	mov	eax, DWORD PTR _i$120360[ebp]
	mov	ecx, DWORD PTR _device_list$[ebp]
	lea	edx, DWORD PTR [ecx+eax*4]
	sub	esp, 8
	mov	eax, esp
	mov	DWORD PTR $T130467[ebp], esp
	push	edx
	push	eax
	call	??$make_shared@VDeviceImpl@LibUSB@@AAPAUlibusb_device@@@tr1@std@@YA?AV?$shared_ptr@VDeviceImpl@LibUSB@@@01@AAPAUlibusb_device@@@Z ; std::tr1::make_shared<LibUSB::DeviceImpl,libusb_device * &>
	add	esp, 8
	mov	DWORD PTR tv189[ebp], eax
	mov	ecx, DWORD PTR $T130466[ebp]
	call	??0Device@LibUSB@@QAE@V?$shared_ptr@VDeviceImpl@LibUSB@@@tr1@std@@@Z ; LibUSB::Device::Device
	mov	DWORD PTR tv190[ebp], eax
	mov	ecx, DWORD PTR tv190[ebp]
	mov	DWORD PTR tv157[ebp], ecx
	jmp	SHORT $LN10@FindDevice
$LN9@FindDevice:
	mov	DWORD PTR tv157[ebp], 0
$LN10@FindDevice:
	mov	edx, DWORD PTR tv157[ebp]
	mov	DWORD PTR $T130465[ebp], edx
	mov	BYTE PTR __$EHRec$[ebp+8], 2
	mov	eax, DWORD PTR $T130465[ebp]
	push	eax
	lea	ecx, DWORD PTR _pDevice$120609[ebp]
	call	??$reset@VDevice@LibUSB@@@?$shared_ptr@VDevice@LibUSB@@@tr1@std@@QAEXPAVDevice@LibUSB@@@Z ; std::tr1::shared_ptr<LibUSB::Device>::reset<LibUSB::Device>
$LN2@FindDevice:
; Line 39
	lea	ecx, DWORD PTR _pDevice$120609[ebp]
	call	??C?$shared_ptr@VDevice@LibUSB@@@tr1@std@@QBEPAVDevice@LibUSB@@XZ ; std::tr1::shared_ptr<LibUSB::Device>::operator->
	mov	ecx, eax
	call	?vendorID@Device@LibUSB@@QAEGXZ		; LibUSB::Device::vendorID
	movzx	eax, ax
	movzx	ecx, WORD PTR _vendorID$[ebp]
	cmp	eax, ecx
	jne	SHORT $LN1@FindDevice
	lea	ecx, DWORD PTR _pDevice$120609[ebp]
	call	??C?$shared_ptr@VDevice@LibUSB@@@tr1@std@@QBEPAVDevice@LibUSB@@XZ ; std::tr1::shared_ptr<LibUSB::Device>::operator->
	mov	ecx, eax
	call	?productID@Device@LibUSB@@QAEGXZ	; LibUSB::Device::productID
	movzx	eax, ax
	movzx	ecx, WORD PTR _productID$[ebp]
	cmp	eax, ecx
	jne	SHORT $LN1@FindDevice
; Line 42
	lea	eax, DWORD PTR _pDevice$120609[ebp]
	push	eax
	lea	ecx, DWORD PTR _deviceList$[ebp]
	call	?push_back@?$list@V?$shared_ptr@VDevice@LibUSB@@@tr1@std@@V?$allocator@V?$shared_ptr@VDevice@LibUSB@@@tr1@std@@@3@@std@@QAEXABV?$shared_ptr@VDevice@LibUSB@@@tr1@2@@Z ; std::list<std::tr1::shared_ptr<LibUSB::Device>,std::allocator<std::tr1::shared_ptr<LibUSB::Device> > >::push_back
$LN1@FindDevice:
; Line 45
	mov	BYTE PTR __$EHRec$[ebp+8], 1
	lea	ecx, DWORD PTR _pDevice$120609[ebp]
	call	??1?$shared_ptr@VDevice@LibUSB@@@tr1@std@@QAE@XZ ; std::tr1::shared_ptr<LibUSB::Device>::~shared_ptr<LibUSB::Device>
	jmp	$LN5@FindDevice
$LN4@FindDevice:
; Line 48
	push	1
	mov	eax, DWORD PTR _device_list$[ebp]
	push	eax
	call	_libusb_free_device_list@8
; Line 50
	lea	eax, DWORD PTR _deviceList$[ebp]
	push	eax
	mov	ecx, DWORD PTR ___$ReturnUdt$[ebp]
	call	??0?$list@V?$shared_ptr@VDevice@LibUSB@@@tr1@std@@V?$allocator@V?$shared_ptr@VDevice@LibUSB@@@tr1@std@@@3@@std@@QAE@$$QAV01@@Z ; std::list<std::tr1::shared_ptr<LibUSB::Device>,std::allocator<std::tr1::shared_ptr<LibUSB::Device> > >::list<std::tr1::shared_ptr<LibUSB::Device>,std::allocator<std::tr1::shared_ptr<LibUSB::Device> > >
	mov	ecx, DWORD PTR $T130483[ebp]
	or	ecx, 1
	mov	DWORD PTR $T130483[ebp], ecx
	mov	BYTE PTR __$EHRec$[ebp+8], 0
	lea	ecx, DWORD PTR _deviceList$[ebp]
	call	??1?$list@V?$shared_ptr@VDevice@LibUSB@@@tr1@std@@V?$allocator@V?$shared_ptr@VDevice@LibUSB@@@tr1@std@@@3@@std@@QAE@XZ ; std::list<std::tr1::shared_ptr<LibUSB::Device>,std::allocator<std::tr1::shared_ptr<LibUSB::Device> > >::~list<std::tr1::shared_ptr<LibUSB::Device>,std::allocator<std::tr1::shared_ptr<LibUSB::Device> > >
	mov	eax, DWORD PTR ___$ReturnUdt$[ebp]
; Line 52
	push	edx
	mov	ecx, ebp
	push	eax
	lea	edx, DWORD PTR $LN24@FindDevice
	call	@_RTC_CheckStackVars@8
	pop	eax
	pop	edx
	mov	ecx, DWORD PTR __$EHRec$[ebp]
	mov	DWORD PTR fs:0, ecx
	pop	ecx
	pop	edi
	pop	esi
	pop	ebx
	add	esp, 368				; 00000170H
	cmp	ebp, esp
	call	__RTC_CheckEsp
	mov	esp, ebp
	pop	ebp
	ret	0
$LN24@FindDevice:
	DD	3
	DD	$LN23@FindDevice
$LN23@FindDevice:
	DD	-20					; ffffffecH
	DD	4
	DD	$LN19@FindDevice
	DD	-56					; ffffffc8H
	DD	16					; 00000010H
	DD	$LN20@FindDevice
	DD	-84					; ffffffacH
	DD	8
	DD	$LN21@FindDevice
$LN21@FindDevice:
	DB	112					; 00000070H
	DB	68					; 00000044H
	DB	101					; 00000065H
	DB	118					; 00000076H
	DB	105					; 00000069H
	DB	99					; 00000063H
	DB	101					; 00000065H
	DB	0
$LN20@FindDevice:
	DB	100					; 00000064H
	DB	101					; 00000065H
	DB	118					; 00000076H
	DB	105					; 00000069H
	DB	99					; 00000063H
	DB	101					; 00000065H
	DB	76					; 0000004cH
	DB	105					; 00000069H
	DB	115					; 00000073H
	DB	116					; 00000074H
	DB	0
$LN19@FindDevice:
	DB	100					; 00000064H
	DB	101					; 00000065H
	DB	118					; 00000076H
	DB	105					; 00000069H
	DB	99					; 00000063H
	DB	101					; 00000065H
	DB	95					; 0000005fH
	DB	108					; 0000006cH
	DB	105					; 00000069H
	DB	115					; 00000073H
	DB	116					; 00000074H
	DB	0
_TEXT	ENDS
;	COMDAT text$x
text$x	SEGMENT
__unwindfunclet$?FindDevice@LibUSB@1@SA?AV?$list@V?$shared_ptr@VDevice@LibUSB@@@tr1@std@@V?$allocator@V?$shared_ptr@VDevice@LibUSB@@@tr1@std@@@3@@std@@GGP6A?AV?$shared_ptr@VDevice@LibUSB@@@tr1@3@V?$shared_ptr@VDeviceImpl@LibUSB@@@53@@Z@Z$0:
	lea	ecx, DWORD PTR _deviceList$[ebp]
	jmp	??1?$list@V?$shared_ptr@VDevice@LibUSB@@@tr1@std@@V?$allocator@V?$shared_ptr@VDevice@LibUSB@@@tr1@std@@@3@@std@@QAE@XZ ; std::list<std::tr1::shared_ptr<LibUSB::Device>,std::allocator<std::tr1::shared_ptr<LibUSB::Device> > >::~list<std::tr1::shared_ptr<LibUSB::Device>,std::allocator<std::tr1::shared_ptr<LibUSB::Device> > >
__unwindfunclet$?FindDevice@LibUSB@1@SA?AV?$list@V?$shared_ptr@VDevice@LibUSB@@@tr1@std@@V?$allocator@V?$shared_ptr@VDevice@LibUSB@@@tr1@std@@@3@@std@@GGP6A?AV?$shared_ptr@VDevice@LibUSB@@@tr1@3@V?$shared_ptr@VDeviceImpl@LibUSB@@@53@@Z@Z$1:
	lea	ecx, DWORD PTR _pDevice$120609[ebp]
	jmp	??1?$shared_ptr@VDevice@LibUSB@@@tr1@std@@QAE@XZ ; std::tr1::shared_ptr<LibUSB::Device>::~shared_ptr<LibUSB::Device>
__unwindfunclet$?FindDevice@LibUSB@1@SA?AV?$list@V?$shared_ptr@VDevice@LibUSB@@@tr1@std@@V?$allocator@V?$shared_ptr@VDevice@LibUSB@@@tr1@std@@@3@@std@@GGP6A?AV?$shared_ptr@VDevice@LibUSB@@@tr1@3@V?$shared_ptr@VDeviceImpl@LibUSB@@@53@@Z@Z$3:
	lea	ecx, DWORD PTR $T130464[ebp]
	jmp	??1?$shared_ptr@VDevice@LibUSB@@@tr1@std@@QAE@XZ ; std::tr1::shared_ptr<LibUSB::Device>::~shared_ptr<LibUSB::Device>
__unwindfunclet$?FindDevice@LibUSB@1@SA?AV?$list@V?$shared_ptr@VDevice@LibUSB@@@tr1@std@@V?$allocator@V?$shared_ptr@VDevice@LibUSB@@@tr1@std@@@3@@std@@GGP6A?AV?$shared_ptr@VDevice@LibUSB@@@tr1@3@V?$shared_ptr@VDeviceImpl@LibUSB@@@53@@Z@Z$4:
	mov	eax, DWORD PTR $T130466[ebp]
	push	eax
	call	??3@YAXPAX@Z				; operator delete
	pop	ecx
	ret	0
__unwindfunclet$?FindDevice@LibUSB@1@SA?AV?$list@V?$shared_ptr@VDevice@LibUSB@@@tr1@std@@V?$allocator@V?$shared_ptr@VDevice@LibUSB@@@tr1@std@@@3@@std@@GGP6A?AV?$shared_ptr@VDevice@LibUSB@@@tr1@3@V?$shared_ptr@VDeviceImpl@LibUSB@@@53@@Z@Z$6:
	mov	eax, DWORD PTR $T130483[ebp]
	and	eax, 1
	je	$LN18@FindDevice
	and	DWORD PTR $T130483[ebp], -2		; fffffffeH
	mov	ecx, DWORD PTR ___$ReturnUdt$[ebp]
	jmp	??1?$list@V?$shared_ptr@VDevice@LibUSB@@@tr1@std@@V?$allocator@V?$shared_ptr@VDevice@LibUSB@@@tr1@std@@@3@@std@@QAE@XZ ; std::list<std::tr1::shared_ptr<LibUSB::Device>,std::allocator<std::tr1::shared_ptr<LibUSB::Device> > >::~list<std::tr1::shared_ptr<LibUSB::Device>,std::allocator<std::tr1::shared_ptr<LibUSB::Device> > >
$LN18@FindDevice:
	ret	0
__ehhandler$?FindDevice@LibUSB@1@SA?AV?$list@V?$shared_ptr@VDevice@LibUSB@@@tr1@std@@V?$allocator@V?$shared_ptr@VDevice@LibUSB@@@tr1@std@@@3@@std@@GGP6A?AV?$shared_ptr@VDevice@LibUSB@@@tr1@3@V?$shared_ptr@VDeviceImpl@LibUSB@@@53@@Z@Z:
	mov	edx, DWORD PTR [esp+8]
	lea	eax, DWORD PTR [edx+12]
	mov	ecx, DWORD PTR [edx-372]
	xor	ecx, eax
	call	@__security_check_cookie@4
	mov	eax, OFFSET __ehfuncinfo$?FindDevice@LibUSB@1@SA?AV?$list@V?$shared_ptr@VDevice@LibUSB@@@tr1@std@@V?$allocator@V?$shared_ptr@VDevice@LibUSB@@@tr1@std@@@3@@std@@GGP6A?AV?$shared_ptr@VDevice@LibUSB@@@tr1@3@V?$shared_ptr@VDeviceImpl@LibUSB@@@53@@Z@Z
	jmp	___CxxFrameHandler3
text$x	ENDS
?FindDevice@LibUSB@1@SA?AV?$list@V?$shared_ptr@VDevice@LibUSB@@@tr1@std@@V?$allocator@V?$shared_ptr@VDevice@LibUSB@@@tr1@std@@@3@@std@@GGP6A?AV?$shared_ptr@VDevice@LibUSB@@@tr1@3@V?$shared_ptr@VDeviceImpl@LibUSB@@@53@@Z@Z ENDP ; LibUSB::LibUSB::FindDevice
PUBLIC	??1?$auto_any@V?$_List_iterator@V?$_List_val@V?$shared_ptr@VDevice@LibUSB@@@tr1@std@@V?$allocator@V?$shared_ptr@VDevice@LibUSB@@@tr1@std@@@3@@std@@@std@@@foreach_detail_@boost@@QAE@XZ ; boost::foreach_detail_::auto_any<std::_List_iterator<std::_List_val<std::tr1::shared_ptr<LibUSB::Device>,std::allocator<std::tr1::shared_ptr<LibUSB::Device> > > > >::~auto_any<std::_List_iterator<std::_List_val<std::tr1::shared_ptr<LibUSB::Device>,std::allocator<std::tr1::shared_ptr<LibUSB::Device> > > > >
PUBLIC	??1?$basic_string@_WU?$char_traits@_W@std@@V?$allocator@_W@2@@std@@QAE@XZ ; std::basic_string<wchar_t,std::char_traits<wchar_t>,std::allocator<wchar_t> >::~basic_string<wchar_t,std::char_traits<wchar_t>,std::allocator<wchar_t> >
PUBLIC	??$?8_WU?$char_traits@_W@std@@V?$allocator@_W@1@@std@@YA_NABV?$basic_string@_WU?$char_traits@_W@std@@V?$allocator@_W@2@@0@0@Z ; std::operator==<wchar_t,std::char_traits<wchar_t>,std::allocator<wchar_t> >
PUBLIC	??$deref@V?$list@V?$shared_ptr@VDevice@LibUSB@@@tr1@std@@V?$allocator@V?$shared_ptr@VDevice@LibUSB@@@tr1@std@@@3@@std@@U?$bool_@$0A@@mpl@boost@@@foreach_detail_@boost@@YAAAV?$shared_ptr@VDevice@LibUSB@@@tr1@std@@ABUauto_any_base@01@PAU?$type2type@V?$list@V?$shared_ptr@VDevice@LibUSB@@@tr1@std@@V?$allocator@V?$shared_ptr@VDevice@LibUSB@@@tr1@std@@@3@@std@@U?$bool_@$0A@@mpl@boost@@@01@@Z ; boost::foreach_detail_::deref<std::list<std::tr1::shared_ptr<LibUSB::Device>,std::allocator<std::tr1::shared_ptr<LibUSB::Device> > >,boost::mpl::bool_<0> >
PUBLIC	?set_false@foreach_detail_@boost@@YA_NAA_N@Z	; boost::foreach_detail_::set_false
PUBLIC	??$done@V?$list@V?$shared_ptr@VDevice@LibUSB@@@tr1@std@@V?$allocator@V?$shared_ptr@VDevice@LibUSB@@@tr1@std@@@3@@std@@U?$bool_@$0A@@mpl@boost@@@foreach_detail_@boost@@YA_NABUauto_any_base@01@0PAU?$type2type@V?$list@V?$shared_ptr@VDevice@LibUSB@@@tr1@std@@V?$allocator@V?$shared_ptr@VDevice@LibUSB@@@tr1@std@@@3@@std@@U?$bool_@$0A@@mpl@boost@@@01@@Z ; boost::foreach_detail_::done<std::list<std::tr1::shared_ptr<LibUSB::Device>,std::allocator<std::tr1::shared_ptr<LibUSB::Device> > >,boost::mpl::bool_<0> >
PUBLIC	??$next@V?$list@V?$shared_ptr@VDevice@LibUSB@@@tr1@std@@V?$allocator@V?$shared_ptr@VDevice@LibUSB@@@tr1@std@@@3@@std@@U?$bool_@$0A@@mpl@boost@@@foreach_detail_@boost@@YAXABUauto_any_base@01@PAU?$type2type@V?$list@V?$shared_ptr@VDevice@LibUSB@@@tr1@std@@V?$allocator@V?$shared_ptr@VDevice@LibUSB@@@tr1@std@@@3@@std@@U?$bool_@$0A@@mpl@boost@@@01@@Z ; boost::foreach_detail_::next<std::list<std::tr1::shared_ptr<LibUSB::Device>,std::allocator<std::tr1::shared_ptr<LibUSB::Device> > >,boost::mpl::bool_<0> >
PUBLIC	??$end@V?$list@V?$shared_ptr@VDevice@LibUSB@@@tr1@std@@V?$allocator@V?$shared_ptr@VDevice@LibUSB@@@tr1@std@@@3@@std@@U?$bool_@$0A@@mpl@boost@@@foreach_detail_@boost@@YA?AU?$auto_any@V?$_List_iterator@V?$_List_val@V?$shared_ptr@VDevice@LibUSB@@@tr1@std@@V?$allocator@V?$shared_ptr@VDevice@LibUSB@@@tr1@std@@@3@@std@@@std@@@01@ABUauto_any_base@01@PAU?$type2type@V?$list@V?$shared_ptr@VDevice@LibUSB@@@tr1@std@@V?$allocator@V?$shared_ptr@VDevice@LibUSB@@@tr1@std@@@3@@std@@U?$bool_@$0A@@mpl@boost@@@01@PAU?$bool_@$0A@@mpl@1@@Z ; boost::foreach_detail_::end<std::list<std::tr1::shared_ptr<LibUSB::Device>,std::allocator<std::tr1::shared_ptr<LibUSB::Device> > >,boost::mpl::bool_<0> >
PUBLIC	??$begin@V?$list@V?$shared_ptr@VDevice@LibUSB@@@tr1@std@@V?$allocator@V?$shared_ptr@VDevice@LibUSB@@@tr1@std@@@3@@std@@U?$bool_@$0A@@mpl@boost@@@foreach_detail_@boost@@YA?AU?$auto_any@V?$_List_iterator@V?$_List_val@V?$shared_ptr@VDevice@LibUSB@@@tr1@std@@V?$allocator@V?$shared_ptr@VDevice@LibUSB@@@tr1@std@@@3@@std@@@std@@@01@ABUauto_any_base@01@PAU?$type2type@V?$list@V?$shared_ptr@VDevice@LibUSB@@@tr1@std@@V?$allocator@V?$shared_ptr@VDevice@LibUSB@@@tr1@std@@@3@@std@@U?$bool_@$0A@@mpl@boost@@@01@PAU?$bool_@$0A@@mpl@1@@Z ; boost::foreach_detail_::begin<std::list<std::tr1::shared_ptr<LibUSB::Device>,std::allocator<std::tr1::shared_ptr<LibUSB::Device> > >,boost::mpl::bool_<0> >
PUBLIC	??$encode_type@V?$list@V?$shared_ptr@VDevice@LibUSB@@@tr1@std@@V?$allocator@V?$shared_ptr@VDevice@LibUSB@@@tr1@std@@@3@@std@@@foreach_detail_@boost@@YAPAU?$type2type@V?$list@V?$shared_ptr@VDevice@LibUSB@@@tr1@std@@V?$allocator@V?$shared_ptr@VDevice@LibUSB@@@tr1@std@@@3@@std@@U?$bool_@$0A@@mpl@boost@@@01@AAV?$list@V?$shared_ptr@VDevice@LibUSB@@@tr1@std@@V?$allocator@V?$shared_ptr@VDevice@LibUSB@@@tr1@std@@@3@@std@@PAU?$bool_@$0A@@mpl@1@@Z ; boost::foreach_detail_::encode_type<std::list<std::tr1::shared_ptr<LibUSB::Device>,std::allocator<std::tr1::shared_ptr<LibUSB::Device> > > >
PUBLIC	??$is_const_@V?$list@V?$shared_ptr@VDevice@LibUSB@@@tr1@std@@V?$allocator@V?$shared_ptr@VDevice@LibUSB@@@tr1@std@@@3@@std@@@foreach_detail_@boost@@YAPAU?$is_const@V?$list@V?$shared_ptr@VDevice@LibUSB@@@tr1@std@@V?$allocator@V?$shared_ptr@VDevice@LibUSB@@@tr1@std@@@3@@std@@@1@AAV?$list@V?$shared_ptr@VDevice@LibUSB@@@tr1@std@@V?$allocator@V?$shared_ptr@VDevice@LibUSB@@@tr1@std@@@3@@std@@@Z ; boost::foreach_detail_::is_const_<std::list<std::tr1::shared_ptr<LibUSB::Device>,std::allocator<std::tr1::shared_ptr<LibUSB::Device> > > >
PUBLIC	??Bauto_any_base@foreach_detail_@boost@@QBE_NXZ	; boost::foreach_detail_::auto_any_base::operator bool
PUBLIC	??$contain@V?$list@V?$shared_ptr@VDevice@LibUSB@@@tr1@std@@V?$allocator@V?$shared_ptr@VDevice@LibUSB@@@tr1@std@@@3@@std@@@foreach_detail_@boost@@YA?AU?$auto_any@PAV?$list@V?$shared_ptr@VDevice@LibUSB@@@tr1@std@@V?$allocator@V?$shared_ptr@VDevice@LibUSB@@@tr1@std@@@3@@std@@@01@AAV?$list@V?$shared_ptr@VDevice@LibUSB@@@tr1@std@@V?$allocator@V?$shared_ptr@VDevice@LibUSB@@@tr1@std@@@3@@std@@PAU?$bool_@$0A@@mpl@1@@Z ; boost::foreach_detail_::contain<std::list<std::tr1::shared_ptr<LibUSB::Device>,std::allocator<std::tr1::shared_ptr<LibUSB::Device> > > >
PUBLIC	??$or_@U?$is_rvalue_reference@AAV?$list@V?$shared_ptr@VDevice@LibUSB@@@tr1@std@@V?$allocator@V?$shared_ptr@VDevice@LibUSB@@@tr1@std@@@3@@std@@@boost@@U?$and_@U?$not_@U?$is_noncopyable@V?$list@V?$shared_ptr@VDevice@LibUSB@@@tr1@std@@V?$allocator@V?$shared_ptr@VDevice@LibUSB@@@tr1@std@@@3@@std@@@BOOST_FOREACH@boost@@@mpl@boost@@U?$is_lightweight_proxy@V?$list@V?$shared_ptr@VDevice@LibUSB@@@tr1@std@@V?$allocator@V?$shared_ptr@VDevice@LibUSB@@@tr1@std@@@3@@std@@@BOOST_FOREACH@3@U?$bool_@$00@23@U623@U623@@mpl@2@@foreach_detail_@boost@@YAPAU?$or_@U?$is_rvalue_reference@AAV?$list@V?$shared_ptr@VDevice@LibUSB@@@tr1@std@@V?$allocator@V?$shared_ptr@VDevice@LibUSB@@@tr1@std@@@3@@std@@@boost@@U?$and_@U?$not_@U?$is_noncopyable@V?$list@V?$shared_ptr@VDevice@LibUSB@@@tr1@std@@V?$allocator@V?$shared_ptr@VDevice@LibUSB@@@tr1@std@@@3@@std@@@BOOST_FOREACH@boost@@@mpl@boost@@U?$is_lightweight_proxy@V?$list@V?$shared_ptr@VDevice@LibUSB@@@tr1@std@@V?$allocator@V?$shared_ptr@VDevice@LibUSB@@@tr1@std@@@3@@std@@@BOOST_FOREACH@3@U?$bool_@$00@23@U623@U623@@mpl@2@U?$bool_@$0A@@42@U542@U542@@mpl@1@PAU?$is_rvalue_reference@AAV?$list@V?$shared_ptr@VDevice@LibUSB@@@tr1@std@@V?$allocator@V?$shared_ptr@VDevice@LibUSB@@@tr1@std@@@3@@std@@@1@PAU?$and_@U?$not_@U?$is_noncopyable@V?$list@V?$shared_ptr@VDevice@LibUSB@@@tr1@std@@V?$allocator@V?$shared_ptr@VDevice@LibUSB@@@tr1@std@@@3@@std@@@BOOST_FOREACH@boost@@@mpl@boost@@U?$is_lightweight_proxy@V?$list@V?$shared_ptr@VDevice@LibUSB@@@tr1@std@@V?$allocator@V?$shared_ptr@VDevice@LibUSB@@@tr1@std@@@3@@std@@@BOOST_FOREACH@3@U?$bool_@$00@23@U623@U623@@31@@Z ; boost::foreach_detail_::or_<boost::is_rvalue_reference<std::list<std::tr1::shared_ptr<LibUSB::Device>,std::allocator<std::tr1::shared_ptr<LibUSB::Device> > > &>,boost::mpl::and_<boost::mpl::not_<boost::BOOST_FOREACH::is_noncopyable<std::list<std::tr1::shared_ptr<LibUSB::Device>,std::allocator<std::tr1::shared_ptr<LibUSB::Device> > > > >,boost::BOOST_FOREACH::is_lightweight_proxy<std::list<std::tr1::shared_ptr<LibUSB::Device>,std::allocator<std::tr1::shared_ptr<LibUSB::Device> > > >,boost::mpl::bool_<1>,boost::mpl::bool_<1>,boost::mpl::bool_<1> > >
PUBLIC	??$is_rvalue_@AAV?$list@V?$shared_ptr@VDevice@LibUSB@@@tr1@std@@V?$allocator@V?$shared_ptr@VDevice@LibUSB@@@tr1@std@@@3@@std@@@foreach_detail_@boost@@YAPAU?$is_rvalue_reference@AAV?$list@V?$shared_ptr@VDevice@LibUSB@@@tr1@std@@V?$allocator@V?$shared_ptr@VDevice@LibUSB@@@tr1@std@@@3@@std@@@1@AAV?$list@V?$shared_ptr@VDevice@LibUSB@@@tr1@std@@V?$allocator@V?$shared_ptr@VDevice@LibUSB@@@tr1@std@@@3@@std@@H@Z ; boost::foreach_detail_::is_rvalue_<std::list<std::tr1::shared_ptr<LibUSB::Device>,std::allocator<std::tr1::shared_ptr<LibUSB::Device> > > &>
PUBLIC	??$and_@U?$not_@U?$is_noncopyable@V?$list@V?$shared_ptr@VDevice@LibUSB@@@tr1@std@@V?$allocator@V?$shared_ptr@VDevice@LibUSB@@@tr1@std@@@3@@std@@@BOOST_FOREACH@boost@@@mpl@boost@@U?$is_lightweight_proxy@V?$list@V?$shared_ptr@VDevice@LibUSB@@@tr1@std@@V?$allocator@V?$shared_ptr@VDevice@LibUSB@@@tr1@std@@@3@@std@@@BOOST_FOREACH@3@@foreach_detail_@boost@@YAPAU?$and_@U?$not_@U?$is_noncopyable@V?$list@V?$shared_ptr@VDevice@LibUSB@@@tr1@std@@V?$allocator@V?$shared_ptr@VDevice@LibUSB@@@tr1@std@@@3@@std@@@BOOST_FOREACH@boost@@@mpl@boost@@U?$is_lightweight_proxy@V?$list@V?$shared_ptr@VDevice@LibUSB@@@tr1@std@@V?$allocator@V?$shared_ptr@VDevice@LibUSB@@@tr1@std@@@3@@std@@@BOOST_FOREACH@3@U?$bool_@$00@23@U623@U623@@mpl@1@PAU?$not_@U?$is_noncopyable@V?$list@V?$shared_ptr@VDevice@LibUSB@@@tr1@std@@V?$allocator@V?$shared_ptr@VDevice@LibUSB@@@tr1@std@@@3@@std@@@BOOST_FOREACH@boost@@@31@PAU?$is_lightweight_proxy@V?$list@V?$shared_ptr@VDevice@LibUSB@@@tr1@std@@V?$allocator@V?$shared_ptr@VDevice@LibUSB@@@tr1@std@@@3@@std@@@BOOST_FOREACH@1@@Z ; boost::foreach_detail_::and_<boost::mpl::not_<boost::BOOST_FOREACH::is_noncopyable<std::list<std::tr1::shared_ptr<LibUSB::Device>,std::allocator<std::tr1::shared_ptr<LibUSB::Device> > > > >,boost::BOOST_FOREACH::is_lightweight_proxy<std::list<std::tr1::shared_ptr<LibUSB::Device>,std::allocator<std::tr1::shared_ptr<LibUSB::Device> > > > >
PUBLIC	??$not_@U?$is_noncopyable@V?$list@V?$shared_ptr@VDevice@LibUSB@@@tr1@std@@V?$allocator@V?$shared_ptr@VDevice@LibUSB@@@tr1@std@@@3@@std@@@BOOST_FOREACH@boost@@@foreach_detail_@boost@@YAPAU?$not_@U?$is_noncopyable@V?$list@V?$shared_ptr@VDevice@LibUSB@@@tr1@std@@V?$allocator@V?$shared_ptr@VDevice@LibUSB@@@tr1@std@@@3@@std@@@BOOST_FOREACH@boost@@@mpl@1@PAU?$is_noncopyable@V?$list@V?$shared_ptr@VDevice@LibUSB@@@tr1@std@@V?$allocator@V?$shared_ptr@VDevice@LibUSB@@@tr1@std@@@3@@std@@@BOOST_FOREACH@1@@Z ; boost::foreach_detail_::not_<boost::BOOST_FOREACH::is_noncopyable<std::list<std::tr1::shared_ptr<LibUSB::Device>,std::allocator<std::tr1::shared_ptr<LibUSB::Device> > > > >
PUBLIC	??$boost_foreach_is_noncopyable@V?$list@V?$shared_ptr@VDevice@LibUSB@@@tr1@std@@V?$allocator@V?$shared_ptr@VDevice@LibUSB@@@tr1@std@@@3@@std@@@@YAPAU?$is_noncopyable@V?$list@V?$shared_ptr@VDevice@LibUSB@@@tr1@std@@V?$allocator@V?$shared_ptr@VDevice@LibUSB@@@tr1@std@@@3@@std@@@BOOST_FOREACH@boost@@AAPAV?$list@V?$shared_ptr@VDevice@LibUSB@@@tr1@std@@V?$allocator@V?$shared_ptr@VDevice@LibUSB@@@tr1@std@@@3@@std@@W4boost_foreach_argument_dependent_lookup_hack@@@Z ; boost_foreach_is_noncopyable<std::list<std::tr1::shared_ptr<LibUSB::Device>,std::allocator<std::tr1::shared_ptr<LibUSB::Device> > > >
PUBLIC	??$boost_foreach_is_lightweight_proxy@V?$list@V?$shared_ptr@VDevice@LibUSB@@@tr1@std@@V?$allocator@V?$shared_ptr@VDevice@LibUSB@@@tr1@std@@@3@@std@@@@YAPAU?$is_lightweight_proxy@V?$list@V?$shared_ptr@VDevice@LibUSB@@@tr1@std@@V?$allocator@V?$shared_ptr@VDevice@LibUSB@@@tr1@std@@@3@@std@@@BOOST_FOREACH@boost@@AAPAV?$list@V?$shared_ptr@VDevice@LibUSB@@@tr1@std@@V?$allocator@V?$shared_ptr@VDevice@LibUSB@@@tr1@std@@@3@@std@@W4boost_foreach_argument_dependent_lookup_hack@@@Z ; boost_foreach_is_lightweight_proxy<std::list<std::tr1::shared_ptr<LibUSB::Device>,std::allocator<std::tr1::shared_ptr<LibUSB::Device> > > >
PUBLIC	??$to_ptr@V?$list@V?$shared_ptr@VDevice@LibUSB@@@tr1@std@@V?$allocator@V?$shared_ptr@VDevice@LibUSB@@@tr1@std@@@3@@std@@@foreach_detail_@boost@@YAAAPAV?$list@V?$shared_ptr@VDevice@LibUSB@@@tr1@std@@V?$allocator@V?$shared_ptr@VDevice@LibUSB@@@tr1@std@@@3@@std@@ABV23@@Z ; boost::foreach_detail_::to_ptr<std::list<std::tr1::shared_ptr<LibUSB::Device>,std::allocator<std::tr1::shared_ptr<LibUSB::Device> > > >
PUBLIC	__$ArrayPad$
PUBLIC	?FindDevice@LibUSB@1@SA?AV?$list@V?$shared_ptr@VDevice@LibUSB@@@tr1@std@@V?$allocator@V?$shared_ptr@VDevice@LibUSB@@@tr1@std@@@3@@std@@GGV?$basic_string@_WU?$char_traits@_W@std@@V?$allocator@_W@2@@3@P6A?AV?$shared_ptr@VDevice@LibUSB@@@tr1@3@V?$shared_ptr@VDeviceImpl@LibUSB@@@63@@Z@Z ; LibUSB::LibUSB::FindDevice
EXTRN	?SerialString@Device@LibUSB@@QAE?AV?$basic_string@_WU?$char_traits@_W@std@@V?$allocator@_W@2@@std@@XZ:PROC ; LibUSB::Device::SerialString
;	COMDAT xdata$x
xdata$x	SEGMENT
__ehfuncinfo$?FindDevice@LibUSB@1@SA?AV?$list@V?$shared_ptr@VDevice@LibUSB@@@tr1@std@@V?$allocator@V?$shared_ptr@VDevice@LibUSB@@@tr1@std@@@3@@std@@GGV?$basic_string@_WU?$char_traits@_W@std@@V?$allocator@_W@2@@3@P6A?AV?$shared_ptr@VDevice@LibUSB@@@tr1@3@V?$shared_ptr@VDeviceImpl@LibUSB@@@63@@Z@Z DD 019930522H
	DD	07H
	DD	FLAT:__unwindtable$?FindDevice@LibUSB@1@SA?AV?$list@V?$shared_ptr@VDevice@LibUSB@@@tr1@std@@V?$allocator@V?$shared_ptr@VDevice@LibUSB@@@tr1@std@@@3@@std@@GGV?$basic_string@_WU?$char_traits@_W@std@@V?$allocator@_W@2@@3@P6A?AV?$shared_ptr@VDevice@LibUSB@@@tr1@3@V?$shared_ptr@VDeviceImpl@LibUSB@@@63@@Z@Z
	DD	2 DUP(00H)
	DD	2 DUP(00H)
	DD	00H
	DD	01H
__unwindtable$?FindDevice@LibUSB@1@SA?AV?$list@V?$shared_ptr@VDevice@LibUSB@@@tr1@std@@V?$allocator@V?$shared_ptr@VDevice@LibUSB@@@tr1@std@@@3@@std@@GGV?$basic_string@_WU?$char_traits@_W@std@@V?$allocator@_W@2@@3@P6A?AV?$shared_ptr@VDevice@LibUSB@@@tr1@3@V?$shared_ptr@VDeviceImpl@LibUSB@@@63@@Z@Z DD 0ffffffffH
	DD	FLAT:__unwindfunclet$?FindDevice@LibUSB@1@SA?AV?$list@V?$shared_ptr@VDevice@LibUSB@@@tr1@std@@V?$allocator@V?$shared_ptr@VDevice@LibUSB@@@tr1@std@@@3@@std@@GGV?$basic_string@_WU?$char_traits@_W@std@@V?$allocator@_W@2@@3@P6A?AV?$shared_ptr@VDevice@LibUSB@@@tr1@3@V?$shared_ptr@VDeviceImpl@LibUSB@@@63@@Z@Z$6
	DD	00H
	DD	FLAT:__unwindfunclet$?FindDevice@LibUSB@1@SA?AV?$list@V?$shared_ptr@VDevice@LibUSB@@@tr1@std@@V?$allocator@V?$shared_ptr@VDevice@LibUSB@@@tr1@std@@@3@@std@@GGV?$basic_string@_WU?$char_traits@_W@std@@V?$allocator@_W@2@@3@P6A?AV?$shared_ptr@VDevice@LibUSB@@@tr1@3@V?$shared_ptr@VDeviceImpl@LibUSB@@@63@@Z@Z$0
	DD	01H
	DD	FLAT:__unwindfunclet$?FindDevice@LibUSB@1@SA?AV?$list@V?$shared_ptr@VDevice@LibUSB@@@tr1@std@@V?$allocator@V?$shared_ptr@VDevice@LibUSB@@@tr1@std@@@3@@std@@GGV?$basic_string@_WU?$char_traits@_W@std@@V?$allocator@_W@2@@3@P6A?AV?$shared_ptr@VDevice@LibUSB@@@tr1@3@V?$shared_ptr@VDeviceImpl@LibUSB@@@63@@Z@Z$1
	DD	02H
	DD	FLAT:__unwindfunclet$?FindDevice@LibUSB@1@SA?AV?$list@V?$shared_ptr@VDevice@LibUSB@@@tr1@std@@V?$allocator@V?$shared_ptr@VDevice@LibUSB@@@tr1@std@@@3@@std@@GGV?$basic_string@_WU?$char_traits@_W@std@@V?$allocator@_W@2@@3@P6A?AV?$shared_ptr@VDevice@LibUSB@@@tr1@3@V?$shared_ptr@VDeviceImpl@LibUSB@@@63@@Z@Z$2
	DD	03H
	DD	FLAT:__unwindfunclet$?FindDevice@LibUSB@1@SA?AV?$list@V?$shared_ptr@VDevice@LibUSB@@@tr1@std@@V?$allocator@V?$shared_ptr@VDevice@LibUSB@@@tr1@std@@@3@@std@@GGV?$basic_string@_WU?$char_traits@_W@std@@V?$allocator@_W@2@@3@P6A?AV?$shared_ptr@VDevice@LibUSB@@@tr1@3@V?$shared_ptr@VDeviceImpl@LibUSB@@@63@@Z@Z$3
	DD	04H
	DD	FLAT:__unwindfunclet$?FindDevice@LibUSB@1@SA?AV?$list@V?$shared_ptr@VDevice@LibUSB@@@tr1@std@@V?$allocator@V?$shared_ptr@VDevice@LibUSB@@@tr1@std@@@3@@std@@GGV?$basic_string@_WU?$char_traits@_W@std@@V?$allocator@_W@2@@3@P6A?AV?$shared_ptr@VDevice@LibUSB@@@tr1@3@V?$shared_ptr@VDeviceImpl@LibUSB@@@63@@Z@Z$4
	DD	05H
	DD	FLAT:__unwindfunclet$?FindDevice@LibUSB@1@SA?AV?$list@V?$shared_ptr@VDevice@LibUSB@@@tr1@std@@V?$allocator@V?$shared_ptr@VDevice@LibUSB@@@tr1@std@@@3@@std@@GGV?$basic_string@_WU?$char_traits@_W@std@@V?$allocator@_W@2@@3@P6A?AV?$shared_ptr@VDevice@LibUSB@@@tr1@3@V?$shared_ptr@VDeviceImpl@LibUSB@@@63@@Z@Z$5
; Function compile flags: /Odtp /RTCsu /ZI
xdata$x	ENDS
;	COMDAT ?FindDevice@LibUSB@1@SA?AV?$list@V?$shared_ptr@VDevice@LibUSB@@@tr1@std@@V?$allocator@V?$shared_ptr@VDevice@LibUSB@@@tr1@std@@@3@@std@@GGV?$basic_string@_WU?$char_traits@_W@std@@V?$allocator@_W@2@@3@P6A?AV?$shared_ptr@VDevice@LibUSB@@@tr1@3@V?$shared_ptr@VDeviceImpl@LibUSB@@@63@@Z@Z
_TEXT	SEGMENT
tv326 = -440						; size = 4
tv238 = -440						; size = 4
tv186 = -440						; size = 4
tv297 = -436						; size = 4
tv276 = -436						; size = 4
tv258 = -436						; size = 4
tv225 = -436						; size = 4
tv199 = -436						; size = 4
tv173 = -436						; size = 4
tv135 = -436						; size = 4
$T130526 = -425						; size = 1
$T130534 = -416						; size = 4
$T121752 = -404						; size = 32
_pDevice$121693 = -172					; size = 4
__foreach_continue$121668 = -157			; size = 1
_$S3$121665 = -148					; size = 12
__foreach_end$121639 = -128				; size = 4
_$S2$121636 = -116					; size = 12
__foreach_cur$121160 = -96				; size = 4
_$S1$121157 = -84					; size = 4
__foreach_col$120757 = -72				; size = 4
_ResultList$ = -60					; size = 16
_DeviceList$ = -36					; size = 16
__$ArrayPad$ = -16					; size = 4
__$EHRec$ = -12						; size = 12
___$ReturnUdt$ = 8					; size = 4
_vendorID$ = 12						; size = 2
_productID$ = 16					; size = 2
_serialStr$ = 20					; size = 32
_factory$ = 52						; size = 4
?FindDevice@LibUSB@1@SA?AV?$list@V?$shared_ptr@VDevice@LibUSB@@@tr1@std@@V?$allocator@V?$shared_ptr@VDevice@LibUSB@@@tr1@std@@@3@@std@@GGV?$basic_string@_WU?$char_traits@_W@std@@V?$allocator@_W@2@@3@P6A?AV?$shared_ptr@VDevice@LibUSB@@@tr1@3@V?$shared_ptr@VDeviceImpl@LibUSB@@@63@@Z@Z PROC ; LibUSB::LibUSB::FindDevice, COMDAT
; Line 55
	push	ebp
	mov	ebp, esp
	push	-1
	push	__ehhandler$?FindDevice@LibUSB@1@SA?AV?$list@V?$shared_ptr@VDevice@LibUSB@@@tr1@std@@V?$allocator@V?$shared_ptr@VDevice@LibUSB@@@tr1@std@@@3@@std@@GGV?$basic_string@_WU?$char_traits@_W@std@@V?$allocator@_W@2@@3@P6A?AV?$shared_ptr@VDevice@LibUSB@@@tr1@3@V?$shared_ptr@VDeviceImpl@LibUSB@@@63@@Z@Z
	mov	eax, DWORD PTR fs:0
	push	eax
	sub	esp, 428				; 000001acH
	push	ebx
	push	esi
	push	edi
	lea	edi, DWORD PTR [ebp-440]
	mov	ecx, 107				; 0000006bH
	mov	eax, -858993460				; ccccccccH
	rep stosd
	mov	eax, DWORD PTR ___security_cookie
	xor	eax, ebp
	mov	DWORD PTR __$ArrayPad$[ebp], eax
	push	eax
	lea	eax, DWORD PTR __$EHRec$[ebp]
	mov	DWORD PTR fs:0, eax
	mov	DWORD PTR $T130534[ebp], 0
	mov	DWORD PTR __$EHRec$[ebp+8], 1
; Line 58
	mov	eax, DWORD PTR _factory$[ebp]
	push	eax
	movzx	ecx, WORD PTR _productID$[ebp]
	push	ecx
	movzx	edx, WORD PTR _vendorID$[ebp]
	push	edx
	lea	eax, DWORD PTR _DeviceList$[ebp]
	push	eax
	call	?FindDevice@LibUSB@1@SA?AV?$list@V?$shared_ptr@VDevice@LibUSB@@@tr1@std@@V?$allocator@V?$shared_ptr@VDevice@LibUSB@@@tr1@std@@@3@@std@@GGP6A?AV?$shared_ptr@VDevice@LibUSB@@@tr1@3@V?$shared_ptr@VDeviceImpl@LibUSB@@@53@@Z@Z ; LibUSB::LibUSB::FindDevice
	add	esp, 16					; 00000010H
	mov	BYTE PTR __$EHRec$[ebp+8], 2
; Line 60
	lea	ecx, DWORD PTR _ResultList$[ebp]
	call	??0?$list@V?$shared_ptr@VDevice@LibUSB@@@tr1@std@@V?$allocator@V?$shared_ptr@VDevice@LibUSB@@@tr1@std@@@3@@std@@QAE@XZ ; std::list<std::tr1::shared_ptr<LibUSB::Device>,std::allocator<std::tr1::shared_ptr<LibUSB::Device> > >::list<std::tr1::shared_ptr<LibUSB::Device>,std::allocator<std::tr1::shared_ptr<LibUSB::Device> > >
	mov	BYTE PTR __$EHRec$[ebp+8], 3
; Line 63
	mov	eax, 1
	test	eax, eax
	je	SHORT $LN18@FindDevice@2
	mov	DWORD PTR tv135[ebp], 0
	jmp	SHORT $LN19@FindDevice@2
$LN18@FindDevice@2:
	push	0
	lea	ecx, DWORD PTR _DeviceList$[ebp]
	push	ecx
	call	??$to_ptr@V?$list@V?$shared_ptr@VDevice@LibUSB@@@tr1@std@@V?$allocator@V?$shared_ptr@VDevice@LibUSB@@@tr1@std@@@3@@std@@@foreach_detail_@boost@@YAAAPAV?$list@V?$shared_ptr@VDevice@LibUSB@@@tr1@std@@V?$allocator@V?$shared_ptr@VDevice@LibUSB@@@tr1@std@@@3@@std@@ABV23@@Z ; boost::foreach_detail_::to_ptr<std::list<std::tr1::shared_ptr<LibUSB::Device>,std::allocator<std::tr1::shared_ptr<LibUSB::Device> > > >
	add	esp, 4
	push	eax
	call	??$boost_foreach_is_lightweight_proxy@V?$list@V?$shared_ptr@VDevice@LibUSB@@@tr1@std@@V?$allocator@V?$shared_ptr@VDevice@LibUSB@@@tr1@std@@@3@@std@@@@YAPAU?$is_lightweight_proxy@V?$list@V?$shared_ptr@VDevice@LibUSB@@@tr1@std@@V?$allocator@V?$shared_ptr@VDevice@LibUSB@@@tr1@std@@@3@@std@@@BOOST_FOREACH@boost@@AAPAV?$list@V?$shared_ptr@VDevice@LibUSB@@@tr1@std@@V?$allocator@V?$shared_ptr@VDevice@LibUSB@@@tr1@std@@@3@@std@@W4boost_foreach_argument_dependent_lookup_hack@@@Z ; boost_foreach_is_lightweight_proxy<std::list<std::tr1::shared_ptr<LibUSB::Device>,std::allocator<std::tr1::shared_ptr<LibUSB::Device> > > >
	add	esp, 8
	push	eax
	push	0
	lea	edx, DWORD PTR _DeviceList$[ebp]
	push	edx
	call	??$to_ptr@V?$list@V?$shared_ptr@VDevice@LibUSB@@@tr1@std@@V?$allocator@V?$shared_ptr@VDevice@LibUSB@@@tr1@std@@@3@@std@@@foreach_detail_@boost@@YAAAPAV?$list@V?$shared_ptr@VDevice@LibUSB@@@tr1@std@@V?$allocator@V?$shared_ptr@VDevice@LibUSB@@@tr1@std@@@3@@std@@ABV23@@Z ; boost::foreach_detail_::to_ptr<std::list<std::tr1::shared_ptr<LibUSB::Device>,std::allocator<std::tr1::shared_ptr<LibUSB::Device> > > >
	add	esp, 4
	push	eax
	call	??$boost_foreach_is_noncopyable@V?$list@V?$shared_ptr@VDevice@LibUSB@@@tr1@std@@V?$allocator@V?$shared_ptr@VDevice@LibUSB@@@tr1@std@@@3@@std@@@@YAPAU?$is_noncopyable@V?$list@V?$shared_ptr@VDevice@LibUSB@@@tr1@std@@V?$allocator@V?$shared_ptr@VDevice@LibUSB@@@tr1@std@@@3@@std@@@BOOST_FOREACH@boost@@AAPAV?$list@V?$shared_ptr@VDevice@LibUSB@@@tr1@std@@V?$allocator@V?$shared_ptr@VDevice@LibUSB@@@tr1@std@@@3@@std@@W4boost_foreach_argument_dependent_lookup_hack@@@Z ; boost_foreach_is_noncopyable<std::list<std::tr1::shared_ptr<LibUSB::Device>,std::allocator<std::tr1::shared_ptr<LibUSB::Device> > > >
	add	esp, 8
	push	eax
	call	??$not_@U?$is_noncopyable@V?$list@V?$shared_ptr@VDevice@LibUSB@@@tr1@std@@V?$allocator@V?$shared_ptr@VDevice@LibUSB@@@tr1@std@@@3@@std@@@BOOST_FOREACH@boost@@@foreach_detail_@boost@@YAPAU?$not_@U?$is_noncopyable@V?$list@V?$shared_ptr@VDevice@LibUSB@@@tr1@std@@V?$allocator@V?$shared_ptr@VDevice@LibUSB@@@tr1@std@@@3@@std@@@BOOST_FOREACH@boost@@@mpl@1@PAU?$is_noncopyable@V?$list@V?$shared_ptr@VDevice@LibUSB@@@tr1@std@@V?$allocator@V?$shared_ptr@VDevice@LibUSB@@@tr1@std@@@3@@std@@@BOOST_FOREACH@1@@Z ; boost::foreach_detail_::not_<boost::BOOST_FOREACH::is_noncopyable<std::list<std::tr1::shared_ptr<LibUSB::Device>,std::allocator<std::tr1::shared_ptr<LibUSB::Device> > > > >
	add	esp, 4
	push	eax
	call	??$and_@U?$not_@U?$is_noncopyable@V?$list@V?$shared_ptr@VDevice@LibUSB@@@tr1@std@@V?$allocator@V?$shared_ptr@VDevice@LibUSB@@@tr1@std@@@3@@std@@@BOOST_FOREACH@boost@@@mpl@boost@@U?$is_lightweight_proxy@V?$list@V?$shared_ptr@VDevice@LibUSB@@@tr1@std@@V?$allocator@V?$shared_ptr@VDevice@LibUSB@@@tr1@std@@@3@@std@@@BOOST_FOREACH@3@@foreach_detail_@boost@@YAPAU?$and_@U?$not_@U?$is_noncopyable@V?$list@V?$shared_ptr@VDevice@LibUSB@@@tr1@std@@V?$allocator@V?$shared_ptr@VDevice@LibUSB@@@tr1@std@@@3@@std@@@BOOST_FOREACH@boost@@@mpl@boost@@U?$is_lightweight_proxy@V?$list@V?$shared_ptr@VDevice@LibUSB@@@tr1@std@@V?$allocator@V?$shared_ptr@VDevice@LibUSB@@@tr1@std@@@3@@std@@@BOOST_FOREACH@3@U?$bool_@$00@23@U623@U623@@mpl@1@PAU?$not_@U?$is_noncopyable@V?$list@V?$shared_ptr@VDevice@LibUSB@@@tr1@std@@V?$allocator@V?$shared_ptr@VDevice@LibUSB@@@tr1@std@@@3@@std@@@BOOST_FOREACH@boost@@@31@PAU?$is_lightweight_proxy@V?$list@V?$shared_ptr@VDevice@LibUSB@@@tr1@std@@V?$allocator@V?$shared_ptr@VDevice@LibUSB@@@tr1@std@@@3@@std@@@BOOST_FOREACH@1@@Z ; boost::foreach_detail_::and_<boost::mpl::not_<boost::BOOST_FOREACH::is_noncopyable<std::list<std::tr1::shared_ptr<LibUSB::Device>,std::allocator<std::tr1::shared_ptr<LibUSB::Device> > > > >,boost::BOOST_FOREACH::is_lightweight_proxy<std::list<std::tr1::shared_ptr<LibUSB::Device>,std::allocator<std::tr1::shared_ptr<LibUSB::Device> > > > >
	add	esp, 8
	push	eax
	push	0
	lea	eax, DWORD PTR _DeviceList$[ebp]
	push	eax
	call	??$is_rvalue_@AAV?$list@V?$shared_ptr@VDevice@LibUSB@@@tr1@std@@V?$allocator@V?$shared_ptr@VDevice@LibUSB@@@tr1@std@@@3@@std@@@foreach_detail_@boost@@YAPAU?$is_rvalue_reference@AAV?$list@V?$shared_ptr@VDevice@LibUSB@@@tr1@std@@V?$allocator@V?$shared_ptr@VDevice@LibUSB@@@tr1@std@@@3@@std@@@1@AAV?$list@V?$shared_ptr@VDevice@LibUSB@@@tr1@std@@V?$allocator@V?$shared_ptr@VDevice@LibUSB@@@tr1@std@@@3@@std@@H@Z ; boost::foreach_detail_::is_rvalue_<std::list<std::tr1::shared_ptr<LibUSB::Device>,std::allocator<std::tr1::shared_ptr<LibUSB::Device> > > &>
	add	esp, 8
	push	eax
	call	??$or_@U?$is_rvalue_reference@AAV?$list@V?$shared_ptr@VDevice@LibUSB@@@tr1@std@@V?$allocator@V?$shared_ptr@VDevice@LibUSB@@@tr1@std@@@3@@std@@@boost@@U?$and_@U?$not_@U?$is_noncopyable@V?$list@V?$shared_ptr@VDevice@LibUSB@@@tr1@std@@V?$allocator@V?$shared_ptr@VDevice@LibUSB@@@tr1@std@@@3@@std@@@BOOST_FOREACH@boost@@@mpl@boost@@U?$is_lightweight_proxy@V?$list@V?$shared_ptr@VDevice@LibUSB@@@tr1@std@@V?$allocator@V?$shared_ptr@VDevice@LibUSB@@@tr1@std@@@3@@std@@@BOOST_FOREACH@3@U?$bool_@$00@23@U623@U623@@mpl@2@@foreach_detail_@boost@@YAPAU?$or_@U?$is_rvalue_reference@AAV?$list@V?$shared_ptr@VDevice@LibUSB@@@tr1@std@@V?$allocator@V?$shared_ptr@VDevice@LibUSB@@@tr1@std@@@3@@std@@@boost@@U?$and_@U?$not_@U?$is_noncopyable@V?$list@V?$shared_ptr@VDevice@LibUSB@@@tr1@std@@V?$allocator@V?$shared_ptr@VDevice@LibUSB@@@tr1@std@@@3@@std@@@BOOST_FOREACH@boost@@@mpl@boost@@U?$is_lightweight_proxy@V?$list@V?$shared_ptr@VDevice@LibUSB@@@tr1@std@@V?$allocator@V?$shared_ptr@VDevice@LibUSB@@@tr1@std@@@3@@std@@@BOOST_FOREACH@3@U?$bool_@$00@23@U623@U623@@mpl@2@U?$bool_@$0A@@42@U542@U542@@mpl@1@PAU?$is_rvalue_reference@AAV?$list@V?$shared_ptr@VDevice@LibUSB@@@tr1@std@@V?$allocator@V?$shared_ptr@VDevice@LibUSB@@@tr1@std@@@3@@std@@@1@PAU?$and_@U?$not_@U?$is_noncopyable@V?$list@V?$shared_ptr@VDevice@LibUSB@@@tr1@std@@V?$allocator@V?$shared_ptr@VDevice@LibUSB@@@tr1@std@@@3@@std@@@BOOST_FOREACH@boost@@@mpl@boost@@U?$is_lightweight_proxy@V?$list@V?$shared_ptr@VDevice@LibUSB@@@tr1@std@@V?$allocator@V?$shared_ptr@VDevice@LibUSB@@@tr1@std@@@3@@std@@@BOOST_FOREACH@3@U?$bool_@$00@23@U623@U623@@31@@Z ; boost::foreach_detail_::or_<boost::is_rvalue_reference<std::list<std::tr1::shared_ptr<LibUSB::Device>,std::allocator<std::tr1::shared_ptr<LibUSB::Device> > > &>,boost::mpl::and_<boost::mpl::not_<boost::BOOST_FOREACH::is_noncopyable<std::list<std::tr1::shared_ptr<LibUSB::Device>,std::allocator<std::tr1::shared_ptr<LibUSB::Device> > > > >,boost::BOOST_FOREACH::is_lightweight_proxy<std::list<std::tr1::shared_ptr<LibUSB::Device>,std::allocator<std::tr1::shared_ptr<LibUSB::Device> > > >,boost::mpl::bool_<1>,boost::mpl::bool_<1>,boost::mpl::bool_<1> > >
	add	esp, 8
	mov	DWORD PTR tv135[ebp], eax
$LN19@FindDevice@2:
	mov	ecx, DWORD PTR tv135[ebp]
	push	ecx
	lea	edx, DWORD PTR _DeviceList$[ebp]
	push	edx
	lea	eax, DWORD PTR _$S1$121157[ebp]
	push	eax
	call	??$contain@V?$list@V?$shared_ptr@VDevice@LibUSB@@@tr1@std@@V?$allocator@V?$shared_ptr@VDevice@LibUSB@@@tr1@std@@@3@@std@@@foreach_detail_@boost@@YA?AU?$auto_any@PAV?$list@V?$shared_ptr@VDevice@LibUSB@@@tr1@std@@V?$allocator@V?$shared_ptr@VDevice@LibUSB@@@tr1@std@@@3@@std@@@01@AAV?$list@V?$shared_ptr@VDevice@LibUSB@@@tr1@std@@V?$allocator@V?$shared_ptr@VDevice@LibUSB@@@tr1@std@@@3@@std@@PAU?$bool_@$0A@@mpl@1@@Z ; boost::foreach_detail_::contain<std::list<std::tr1::shared_ptr<LibUSB::Device>,std::allocator<std::tr1::shared_ptr<LibUSB::Device> > > >
	add	esp, 12					; 0000000cH
	lea	ecx, DWORD PTR _$S1$121157[ebp]
	mov	DWORD PTR __foreach_col$120757[ebp], ecx
	mov	ecx, DWORD PTR __foreach_col$120757[ebp]
	call	??Bauto_any_base@foreach_detail_@boost@@QBE_NXZ ; boost::foreach_detail_::auto_any_base::operator bool
	movzx	eax, al
	test	eax, eax
	je	SHORT $LN15@FindDevice@2
	jmp	$LN14@FindDevice@2
$LN15@FindDevice@2:
	mov	eax, 1
	test	eax, eax
	je	SHORT $LN20@FindDevice@2
	mov	DWORD PTR tv173[ebp], 0
	jmp	SHORT $LN21@FindDevice@2
$LN20@FindDevice@2:
	push	0
	lea	ecx, DWORD PTR _DeviceList$[ebp]
	push	ecx
	call	??$to_ptr@V?$list@V?$shared_ptr@VDevice@LibUSB@@@tr1@std@@V?$allocator@V?$shared_ptr@VDevice@LibUSB@@@tr1@std@@@3@@std@@@foreach_detail_@boost@@YAAAPAV?$list@V?$shared_ptr@VDevice@LibUSB@@@tr1@std@@V?$allocator@V?$shared_ptr@VDevice@LibUSB@@@tr1@std@@@3@@std@@ABV23@@Z ; boost::foreach_detail_::to_ptr<std::list<std::tr1::shared_ptr<LibUSB::Device>,std::allocator<std::tr1::shared_ptr<LibUSB::Device> > > >
	add	esp, 4
	push	eax
	call	??$boost_foreach_is_lightweight_proxy@V?$list@V?$shared_ptr@VDevice@LibUSB@@@tr1@std@@V?$allocator@V?$shared_ptr@VDevice@LibUSB@@@tr1@std@@@3@@std@@@@YAPAU?$is_lightweight_proxy@V?$list@V?$shared_ptr@VDevice@LibUSB@@@tr1@std@@V?$allocator@V?$shared_ptr@VDevice@LibUSB@@@tr1@std@@@3@@std@@@BOOST_FOREACH@boost@@AAPAV?$list@V?$shared_ptr@VDevice@LibUSB@@@tr1@std@@V?$allocator@V?$shared_ptr@VDevice@LibUSB@@@tr1@std@@@3@@std@@W4boost_foreach_argument_dependent_lookup_hack@@@Z ; boost_foreach_is_lightweight_proxy<std::list<std::tr1::shared_ptr<LibUSB::Device>,std::allocator<std::tr1::shared_ptr<LibUSB::Device> > > >
	add	esp, 8
	push	eax
	push	0
	lea	edx, DWORD PTR _DeviceList$[ebp]
	push	edx
	call	??$to_ptr@V?$list@V?$shared_ptr@VDevice@LibUSB@@@tr1@std@@V?$allocator@V?$shared_ptr@VDevice@LibUSB@@@tr1@std@@@3@@std@@@foreach_detail_@boost@@YAAAPAV?$list@V?$shared_ptr@VDevice@LibUSB@@@tr1@std@@V?$allocator@V?$shared_ptr@VDevice@LibUSB@@@tr1@std@@@3@@std@@ABV23@@Z ; boost::foreach_detail_::to_ptr<std::list<std::tr1::shared_ptr<LibUSB::Device>,std::allocator<std::tr1::shared_ptr<LibUSB::Device> > > >
	add	esp, 4
	push	eax
	call	??$boost_foreach_is_noncopyable@V?$list@V?$shared_ptr@VDevice@LibUSB@@@tr1@std@@V?$allocator@V?$shared_ptr@VDevice@LibUSB@@@tr1@std@@@3@@std@@@@YAPAU?$is_noncopyable@V?$list@V?$shared_ptr@VDevice@LibUSB@@@tr1@std@@V?$allocator@V?$shared_ptr@VDevice@LibUSB@@@tr1@std@@@3@@std@@@BOOST_FOREACH@boost@@AAPAV?$list@V?$shared_ptr@VDevice@LibUSB@@@tr1@std@@V?$allocator@V?$shared_ptr@VDevice@LibUSB@@@tr1@std@@@3@@std@@W4boost_foreach_argument_dependent_lookup_hack@@@Z ; boost_foreach_is_noncopyable<std::list<std::tr1::shared_ptr<LibUSB::Device>,std::allocator<std::tr1::shared_ptr<LibUSB::Device> > > >
	add	esp, 8
	push	eax
	call	??$not_@U?$is_noncopyable@V?$list@V?$shared_ptr@VDevice@LibUSB@@@tr1@std@@V?$allocator@V?$shared_ptr@VDevice@LibUSB@@@tr1@std@@@3@@std@@@BOOST_FOREACH@boost@@@foreach_detail_@boost@@YAPAU?$not_@U?$is_noncopyable@V?$list@V?$shared_ptr@VDevice@LibUSB@@@tr1@std@@V?$allocator@V?$shared_ptr@VDevice@LibUSB@@@tr1@std@@@3@@std@@@BOOST_FOREACH@boost@@@mpl@1@PAU?$is_noncopyable@V?$list@V?$shared_ptr@VDevice@LibUSB@@@tr1@std@@V?$allocator@V?$shared_ptr@VDevice@LibUSB@@@tr1@std@@@3@@std@@@BOOST_FOREACH@1@@Z ; boost::foreach_detail_::not_<boost::BOOST_FOREACH::is_noncopyable<std::list<std::tr1::shared_ptr<LibUSB::Device>,std::allocator<std::tr1::shared_ptr<LibUSB::Device> > > > >
	add	esp, 4
	push	eax
	call	??$and_@U?$not_@U?$is_noncopyable@V?$list@V?$shared_ptr@VDevice@LibUSB@@@tr1@std@@V?$allocator@V?$shared_ptr@VDevice@LibUSB@@@tr1@std@@@3@@std@@@BOOST_FOREACH@boost@@@mpl@boost@@U?$is_lightweight_proxy@V?$list@V?$shared_ptr@VDevice@LibUSB@@@tr1@std@@V?$allocator@V?$shared_ptr@VDevice@LibUSB@@@tr1@std@@@3@@std@@@BOOST_FOREACH@3@@foreach_detail_@boost@@YAPAU?$and_@U?$not_@U?$is_noncopyable@V?$list@V?$shared_ptr@VDevice@LibUSB@@@tr1@std@@V?$allocator@V?$shared_ptr@VDevice@LibUSB@@@tr1@std@@@3@@std@@@BOOST_FOREACH@boost@@@mpl@boost@@U?$is_lightweight_proxy@V?$list@V?$shared_ptr@VDevice@LibUSB@@@tr1@std@@V?$allocator@V?$shared_ptr@VDevice@LibUSB@@@tr1@std@@@3@@std@@@BOOST_FOREACH@3@U?$bool_@$00@23@U623@U623@@mpl@1@PAU?$not_@U?$is_noncopyable@V?$list@V?$shared_ptr@VDevice@LibUSB@@@tr1@std@@V?$allocator@V?$shared_ptr@VDevice@LibUSB@@@tr1@std@@@3@@std@@@BOOST_FOREACH@boost@@@31@PAU?$is_lightweight_proxy@V?$list@V?$shared_ptr@VDevice@LibUSB@@@tr1@std@@V?$allocator@V?$shared_ptr@VDevice@LibUSB@@@tr1@std@@@3@@std@@@BOOST_FOREACH@1@@Z ; boost::foreach_detail_::and_<boost::mpl::not_<boost::BOOST_FOREACH::is_noncopyable<std::list<std::tr1::shared_ptr<LibUSB::Device>,std::allocator<std::tr1::shared_ptr<LibUSB::Device> > > > >,boost::BOOST_FOREACH::is_lightweight_proxy<std::list<std::tr1::shared_ptr<LibUSB::Device>,std::allocator<std::tr1::shared_ptr<LibUSB::Device> > > > >
	add	esp, 8
	push	eax
	push	0
	lea	eax, DWORD PTR _DeviceList$[ebp]
	push	eax
	call	??$is_rvalue_@AAV?$list@V?$shared_ptr@VDevice@LibUSB@@@tr1@std@@V?$allocator@V?$shared_ptr@VDevice@LibUSB@@@tr1@std@@@3@@std@@@foreach_detail_@boost@@YAPAU?$is_rvalue_reference@AAV?$list@V?$shared_ptr@VDevice@LibUSB@@@tr1@std@@V?$allocator@V?$shared_ptr@VDevice@LibUSB@@@tr1@std@@@3@@std@@@1@AAV?$list@V?$shared_ptr@VDevice@LibUSB@@@tr1@std@@V?$allocator@V?$shared_ptr@VDevice@LibUSB@@@tr1@std@@@3@@std@@H@Z ; boost::foreach_detail_::is_rvalue_<std::list<std::tr1::shared_ptr<LibUSB::Device>,std::allocator<std::tr1::shared_ptr<LibUSB::Device> > > &>
	add	esp, 8
	push	eax
	call	??$or_@U?$is_rvalue_reference@AAV?$list@V?$shared_ptr@VDevice@LibUSB@@@tr1@std@@V?$allocator@V?$shared_ptr@VDevice@LibUSB@@@tr1@std@@@3@@std@@@boost@@U?$and_@U?$not_@U?$is_noncopyable@V?$list@V?$shared_ptr@VDevice@LibUSB@@@tr1@std@@V?$allocator@V?$shared_ptr@VDevice@LibUSB@@@tr1@std@@@3@@std@@@BOOST_FOREACH@boost@@@mpl@boost@@U?$is_lightweight_proxy@V?$list@V?$shared_ptr@VDevice@LibUSB@@@tr1@std@@V?$allocator@V?$shared_ptr@VDevice@LibUSB@@@tr1@std@@@3@@std@@@BOOST_FOREACH@3@U?$bool_@$00@23@U623@U623@@mpl@2@@foreach_detail_@boost@@YAPAU?$or_@U?$is_rvalue_reference@AAV?$list@V?$shared_ptr@VDevice@LibUSB@@@tr1@std@@V?$allocator@V?$shared_ptr@VDevice@LibUSB@@@tr1@std@@@3@@std@@@boost@@U?$and_@U?$not_@U?$is_noncopyable@V?$list@V?$shared_ptr@VDevice@LibUSB@@@tr1@std@@V?$allocator@V?$shared_ptr@VDevice@LibUSB@@@tr1@std@@@3@@std@@@BOOST_FOREACH@boost@@@mpl@boost@@U?$is_lightweight_proxy@V?$list@V?$shared_ptr@VDevice@LibUSB@@@tr1@std@@V?$allocator@V?$shared_ptr@VDevice@LibUSB@@@tr1@std@@@3@@std@@@BOOST_FOREACH@3@U?$bool_@$00@23@U623@U623@@mpl@2@U?$bool_@$0A@@42@U542@U542@@mpl@1@PAU?$is_rvalue_reference@AAV?$list@V?$shared_ptr@VDevice@LibUSB@@@tr1@std@@V?$allocator@V?$shared_ptr@VDevice@LibUSB@@@tr1@std@@@3@@std@@@1@PAU?$and_@U?$not_@U?$is_noncopyable@V?$list@V?$shared_ptr@VDevice@LibUSB@@@tr1@std@@V?$allocator@V?$shared_ptr@VDevice@LibUSB@@@tr1@std@@@3@@std@@@BOOST_FOREACH@boost@@@mpl@boost@@U?$is_lightweight_proxy@V?$list@V?$shared_ptr@VDevice@LibUSB@@@tr1@std@@V?$allocator@V?$shared_ptr@VDevice@LibUSB@@@tr1@std@@@3@@std@@@BOOST_FOREACH@3@U?$bool_@$00@23@U623@U623@@31@@Z ; boost::foreach_detail_::or_<boost::is_rvalue_reference<std::list<std::tr1::shared_ptr<LibUSB::Device>,std::allocator<std::tr1::shared_ptr<LibUSB::Device> > > &>,boost::mpl::and_<boost::mpl::not_<boost::BOOST_FOREACH::is_noncopyable<std::list<std::tr1::shared_ptr<LibUSB::Device>,std::allocator<std::tr1::shared_ptr<LibUSB::Device> > > > >,boost::BOOST_FOREACH::is_lightweight_proxy<std::list<std::tr1::shared_ptr<LibUSB::Device>,std::allocator<std::tr1::shared_ptr<LibUSB::Device> > > >,boost::mpl::bool_<1>,boost::mpl::bool_<1>,boost::mpl::bool_<1> > >
	add	esp, 8
	mov	DWORD PTR tv173[ebp], eax
$LN21@FindDevice@2:
	mov	ecx, 1
	test	ecx, ecx
	je	SHORT $LN22@FindDevice@2
	mov	DWORD PTR tv186[ebp], 0
	jmp	SHORT $LN23@FindDevice@2
$LN22@FindDevice@2:
	lea	edx, DWORD PTR _DeviceList$[ebp]
	push	edx
	call	??$is_const_@V?$list@V?$shared_ptr@VDevice@LibUSB@@@tr1@std@@V?$allocator@V?$shared_ptr@VDevice@LibUSB@@@tr1@std@@@3@@std@@@foreach_detail_@boost@@YAPAU?$is_const@V?$list@V?$shared_ptr@VDevice@LibUSB@@@tr1@std@@V?$allocator@V?$shared_ptr@VDevice@LibUSB@@@tr1@std@@@3@@std@@@1@AAV?$list@V?$shared_ptr@VDevice@LibUSB@@@tr1@std@@V?$allocator@V?$shared_ptr@VDevice@LibUSB@@@tr1@std@@@3@@std@@@Z ; boost::foreach_detail_::is_const_<std::list<std::tr1::shared_ptr<LibUSB::Device>,std::allocator<std::tr1::shared_ptr<LibUSB::Device> > > >
	add	esp, 4
	push	eax
	lea	eax, DWORD PTR _DeviceList$[ebp]
	push	eax
	call	??$encode_type@V?$list@V?$shared_ptr@VDevice@LibUSB@@@tr1@std@@V?$allocator@V?$shared_ptr@VDevice@LibUSB@@@tr1@std@@@3@@std@@@foreach_detail_@boost@@YAPAU?$type2type@V?$list@V?$shared_ptr@VDevice@LibUSB@@@tr1@std@@V?$allocator@V?$shared_ptr@VDevice@LibUSB@@@tr1@std@@@3@@std@@U?$bool_@$0A@@mpl@boost@@@01@AAV?$list@V?$shared_ptr@VDevice@LibUSB@@@tr1@std@@V?$allocator@V?$shared_ptr@VDevice@LibUSB@@@tr1@std@@@3@@std@@PAU?$bool_@$0A@@mpl@1@@Z ; boost::foreach_detail_::encode_type<std::list<std::tr1::shared_ptr<LibUSB::Device>,std::allocator<std::tr1::shared_ptr<LibUSB::Device> > > >
	add	esp, 8
	mov	DWORD PTR tv186[ebp], eax
$LN23@FindDevice@2:
	mov	ecx, DWORD PTR tv173[ebp]
	push	ecx
	mov	edx, DWORD PTR tv186[ebp]
	push	edx
	mov	eax, DWORD PTR __foreach_col$120757[ebp]
	push	eax
	lea	ecx, DWORD PTR _$S2$121636[ebp]
	push	ecx
	call	??$begin@V?$list@V?$shared_ptr@VDevice@LibUSB@@@tr1@std@@V?$allocator@V?$shared_ptr@VDevice@LibUSB@@@tr1@std@@@3@@std@@U?$bool_@$0A@@mpl@boost@@@foreach_detail_@boost@@YA?AU?$auto_any@V?$_List_iterator@V?$_List_val@V?$shared_ptr@VDevice@LibUSB@@@tr1@std@@V?$allocator@V?$shared_ptr@VDevice@LibUSB@@@tr1@std@@@3@@std@@@std@@@01@ABUauto_any_base@01@PAU?$type2type@V?$list@V?$shared_ptr@VDevice@LibUSB@@@tr1@std@@V?$allocator@V?$shared_ptr@VDevice@LibUSB@@@tr1@std@@@3@@std@@U?$bool_@$0A@@mpl@boost@@@01@PAU?$bool_@$0A@@mpl@1@@Z ; boost::foreach_detail_::begin<std::list<std::tr1::shared_ptr<LibUSB::Device>,std::allocator<std::tr1::shared_ptr<LibUSB::Device> > >,boost::mpl::bool_<0> >
	add	esp, 16					; 00000010H
	mov	BYTE PTR __$EHRec$[ebp+8], 4
	lea	edx, DWORD PTR _$S2$121636[ebp]
	mov	DWORD PTR __foreach_cur$121160[ebp], edx
	mov	ecx, DWORD PTR __foreach_cur$121160[ebp]
	call	??Bauto_any_base@foreach_detail_@boost@@QBE_NXZ ; boost::foreach_detail_::auto_any_base::operator bool
	movzx	eax, al
	test	eax, eax
	je	SHORT $LN13@FindDevice@2
	jmp	$LN12@FindDevice@2
$LN13@FindDevice@2:
	mov	eax, 1
	test	eax, eax
	je	SHORT $LN24@FindDevice@2
	mov	DWORD PTR tv225[ebp], 0
	jmp	SHORT $LN25@FindDevice@2
$LN24@FindDevice@2:
	push	0
	lea	ecx, DWORD PTR _DeviceList$[ebp]
	push	ecx
	call	??$to_ptr@V?$list@V?$shared_ptr@VDevice@LibUSB@@@tr1@std@@V?$allocator@V?$shared_ptr@VDevice@LibUSB@@@tr1@std@@@3@@std@@@foreach_detail_@boost@@YAAAPAV?$list@V?$shared_ptr@VDevice@LibUSB@@@tr1@std@@V?$allocator@V?$shared_ptr@VDevice@LibUSB@@@tr1@std@@@3@@std@@ABV23@@Z ; boost::foreach_detail_::to_ptr<std::list<std::tr1::shared_ptr<LibUSB::Device>,std::allocator<std::tr1::shared_ptr<LibUSB::Device> > > >
	add	esp, 4
	push	eax
	call	??$boost_foreach_is_lightweight_proxy@V?$list@V?$shared_ptr@VDevice@LibUSB@@@tr1@std@@V?$allocator@V?$shared_ptr@VDevice@LibUSB@@@tr1@std@@@3@@std@@@@YAPAU?$is_lightweight_proxy@V?$list@V?$shared_ptr@VDevice@LibUSB@@@tr1@std@@V?$allocator@V?$shared_ptr@VDevice@LibUSB@@@tr1@std@@@3@@std@@@BOOST_FOREACH@boost@@AAPAV?$list@V?$shared_ptr@VDevice@LibUSB@@@tr1@std@@V?$allocator@V?$shared_ptr@VDevice@LibUSB@@@tr1@std@@@3@@std@@W4boost_foreach_argument_dependent_lookup_hack@@@Z ; boost_foreach_is_lightweight_proxy<std::list<std::tr1::shared_ptr<LibUSB::Device>,std::allocator<std::tr1::shared_ptr<LibUSB::Device> > > >
	add	esp, 8
	push	eax
	push	0
	lea	edx, DWORD PTR _DeviceList$[ebp]
	push	edx
	call	??$to_ptr@V?$list@V?$shared_ptr@VDevice@LibUSB@@@tr1@std@@V?$allocator@V?$shared_ptr@VDevice@LibUSB@@@tr1@std@@@3@@std@@@foreach_detail_@boost@@YAAAPAV?$list@V?$shared_ptr@VDevice@LibUSB@@@tr1@std@@V?$allocator@V?$shared_ptr@VDevice@LibUSB@@@tr1@std@@@3@@std@@ABV23@@Z ; boost::foreach_detail_::to_ptr<std::list<std::tr1::shared_ptr<LibUSB::Device>,std::allocator<std::tr1::shared_ptr<LibUSB::Device> > > >
	add	esp, 4
	push	eax
	call	??$boost_foreach_is_noncopyable@V?$list@V?$shared_ptr@VDevice@LibUSB@@@tr1@std@@V?$allocator@V?$shared_ptr@VDevice@LibUSB@@@tr1@std@@@3@@std@@@@YAPAU?$is_noncopyable@V?$list@V?$shared_ptr@VDevice@LibUSB@@@tr1@std@@V?$allocator@V?$shared_ptr@VDevice@LibUSB@@@tr1@std@@@3@@std@@@BOOST_FOREACH@boost@@AAPAV?$list@V?$shared_ptr@VDevice@LibUSB@@@tr1@std@@V?$allocator@V?$shared_ptr@VDevice@LibUSB@@@tr1@std@@@3@@std@@W4boost_foreach_argument_dependent_lookup_hack@@@Z ; boost_foreach_is_noncopyable<std::list<std::tr1::shared_ptr<LibUSB::Device>,std::allocator<std::tr1::shared_ptr<LibUSB::Device> > > >
	add	esp, 8
	push	eax
	call	??$not_@U?$is_noncopyable@V?$list@V?$shared_ptr@VDevice@LibUSB@@@tr1@std@@V?$allocator@V?$shared_ptr@VDevice@LibUSB@@@tr1@std@@@3@@std@@@BOOST_FOREACH@boost@@@foreach_detail_@boost@@YAPAU?$not_@U?$is_noncopyable@V?$list@V?$shared_ptr@VDevice@LibUSB@@@tr1@std@@V?$allocator@V?$shared_ptr@VDevice@LibUSB@@@tr1@std@@@3@@std@@@BOOST_FOREACH@boost@@@mpl@1@PAU?$is_noncopyable@V?$list@V?$shared_ptr@VDevice@LibUSB@@@tr1@std@@V?$allocator@V?$shared_ptr@VDevice@LibUSB@@@tr1@std@@@3@@std@@@BOOST_FOREACH@1@@Z ; boost::foreach_detail_::not_<boost::BOOST_FOREACH::is_noncopyable<std::list<std::tr1::shared_ptr<LibUSB::Device>,std::allocator<std::tr1::shared_ptr<LibUSB::Device> > > > >
	add	esp, 4
	push	eax
	call	??$and_@U?$not_@U?$is_noncopyable@V?$list@V?$shared_ptr@VDevice@LibUSB@@@tr1@std@@V?$allocator@V?$shared_ptr@VDevice@LibUSB@@@tr1@std@@@3@@std@@@BOOST_FOREACH@boost@@@mpl@boost@@U?$is_lightweight_proxy@V?$list@V?$shared_ptr@VDevice@LibUSB@@@tr1@std@@V?$allocator@V?$shared_ptr@VDevice@LibUSB@@@tr1@std@@@3@@std@@@BOOST_FOREACH@3@@foreach_detail_@boost@@YAPAU?$and_@U?$not_@U?$is_noncopyable@V?$list@V?$shared_ptr@VDevice@LibUSB@@@tr1@std@@V?$allocator@V?$shared_ptr@VDevice@LibUSB@@@tr1@std@@@3@@std@@@BOOST_FOREACH@boost@@@mpl@boost@@U?$is_lightweight_proxy@V?$list@V?$shared_ptr@VDevice@LibUSB@@@tr1@std@@V?$allocator@V?$shared_ptr@VDevice@LibUSB@@@tr1@std@@@3@@std@@@BOOST_FOREACH@3@U?$bool_@$00@23@U623@U623@@mpl@1@PAU?$not_@U?$is_noncopyable@V?$list@V?$shared_ptr@VDevice@LibUSB@@@tr1@std@@V?$allocator@V?$shared_ptr@VDevice@LibUSB@@@tr1@std@@@3@@std@@@BOOST_FOREACH@boost@@@31@PAU?$is_lightweight_proxy@V?$list@V?$shared_ptr@VDevice@LibUSB@@@tr1@std@@V?$allocator@V?$shared_ptr@VDevice@LibUSB@@@tr1@std@@@3@@std@@@BOOST_FOREACH@1@@Z ; boost::foreach_detail_::and_<boost::mpl::not_<boost::BOOST_FOREACH::is_noncopyable<std::list<std::tr1::shared_ptr<LibUSB::Device>,std::allocator<std::tr1::shared_ptr<LibUSB::Device> > > > >,boost::BOOST_FOREACH::is_lightweight_proxy<std::list<std::tr1::shared_ptr<LibUSB::Device>,std::allocator<std::tr1::shared_ptr<LibUSB::Device> > > > >
	add	esp, 8
	push	eax
	push	0
	lea	eax, DWORD PTR _DeviceList$[ebp]
	push	eax
	call	??$is_rvalue_@AAV?$list@V?$shared_ptr@VDevice@LibUSB@@@tr1@std@@V?$allocator@V?$shared_ptr@VDevice@LibUSB@@@tr1@std@@@3@@std@@@foreach_detail_@boost@@YAPAU?$is_rvalue_reference@AAV?$list@V?$shared_ptr@VDevice@LibUSB@@@tr1@std@@V?$allocator@V?$shared_ptr@VDevice@LibUSB@@@tr1@std@@@3@@std@@@1@AAV?$list@V?$shared_ptr@VDevice@LibUSB@@@tr1@std@@V?$allocator@V?$shared_ptr@VDevice@LibUSB@@@tr1@std@@@3@@std@@H@Z ; boost::foreach_detail_::is_rvalue_<std::list<std::tr1::shared_ptr<LibUSB::Device>,std::allocator<std::tr1::shared_ptr<LibUSB::Device> > > &>
	add	esp, 8
	push	eax
	call	??$or_@U?$is_rvalue_reference@AAV?$list@V?$shared_ptr@VDevice@LibUSB@@@tr1@std@@V?$allocator@V?$shared_ptr@VDevice@LibUSB@@@tr1@std@@@3@@std@@@boost@@U?$and_@U?$not_@U?$is_noncopyable@V?$list@V?$shared_ptr@VDevice@LibUSB@@@tr1@std@@V?$allocator@V?$shared_ptr@VDevice@LibUSB@@@tr1@std@@@3@@std@@@BOOST_FOREACH@boost@@@mpl@boost@@U?$is_lightweight_proxy@V?$list@V?$shared_ptr@VDevice@LibUSB@@@tr1@std@@V?$allocator@V?$shared_ptr@VDevice@LibUSB@@@tr1@std@@@3@@std@@@BOOST_FOREACH@3@U?$bool_@$00@23@U623@U623@@mpl@2@@foreach_detail_@boost@@YAPAU?$or_@U?$is_rvalue_reference@AAV?$list@V?$shared_ptr@VDevice@LibUSB@@@tr1@std@@V?$allocator@V?$shared_ptr@VDevice@LibUSB@@@tr1@std@@@3@@std@@@boost@@U?$and_@U?$not_@U?$is_noncopyable@V?$list@V?$shared_ptr@VDevice@LibUSB@@@tr1@std@@V?$allocator@V?$shared_ptr@VDevice@LibUSB@@@tr1@std@@@3@@std@@@BOOST_FOREACH@boost@@@mpl@boost@@U?$is_lightweight_proxy@V?$list@V?$shared_ptr@VDevice@LibUSB@@@tr1@std@@V?$allocator@V?$shared_ptr@VDevice@LibUSB@@@tr1@std@@@3@@std@@@BOOST_FOREACH@3@U?$bool_@$00@23@U623@U623@@mpl@2@U?$bool_@$0A@@42@U542@U542@@mpl@1@PAU?$is_rvalue_reference@AAV?$list@V?$shared_ptr@VDevice@LibUSB@@@tr1@std@@V?$allocator@V?$shared_ptr@VDevice@LibUSB@@@tr1@std@@@3@@std@@@1@PAU?$and_@U?$not_@U?$is_noncopyable@V?$list@V?$shared_ptr@VDevice@LibUSB@@@tr1@std@@V?$allocator@V?$shared_ptr@VDevice@LibUSB@@@tr1@std@@@3@@std@@@BOOST_FOREACH@boost@@@mpl@boost@@U?$is_lightweight_proxy@V?$list@V?$shared_ptr@VDevice@LibUSB@@@tr1@std@@V?$allocator@V?$shared_ptr@VDevice@LibUSB@@@tr1@std@@@3@@std@@@BOOST_FOREACH@3@U?$bool_@$00@23@U623@U623@@31@@Z ; boost::foreach_detail_::or_<boost::is_rvalue_reference<std::list<std::tr1::shared_ptr<LibUSB::Device>,std::allocator<std::tr1::shared_ptr<LibUSB::Device> > > &>,boost::mpl::and_<boost::mpl::not_<boost::BOOST_FOREACH::is_noncopyable<std::list<std::tr1::shared_ptr<LibUSB::Device>,std::allocator<std::tr1::shared_ptr<LibUSB::Device> > > > >,boost::BOOST_FOREACH::is_lightweight_proxy<std::list<std::tr1::shared_ptr<LibUSB::Device>,std::allocator<std::tr1::shared_ptr<LibUSB::Device> > > >,boost::mpl::bool_<1>,boost::mpl::bool_<1>,boost::mpl::bool_<1> > >
	add	esp, 8
	mov	DWORD PTR tv225[ebp], eax
$LN25@FindDevice@2:
	mov	ecx, 1
	test	ecx, ecx
	je	SHORT $LN26@FindDevice@2
	mov	DWORD PTR tv238[ebp], 0
	jmp	SHORT $LN27@FindDevice@2
$LN26@FindDevice@2:
	lea	edx, DWORD PTR _DeviceList$[ebp]
	push	edx
	call	??$is_const_@V?$list@V?$shared_ptr@VDevice@LibUSB@@@tr1@std@@V?$allocator@V?$shared_ptr@VDevice@LibUSB@@@tr1@std@@@3@@std@@@foreach_detail_@boost@@YAPAU?$is_const@V?$list@V?$shared_ptr@VDevice@LibUSB@@@tr1@std@@V?$allocator@V?$shared_ptr@VDevice@LibUSB@@@tr1@std@@@3@@std@@@1@AAV?$list@V?$shared_ptr@VDevice@LibUSB@@@tr1@std@@V?$allocator@V?$shared_ptr@VDevice@LibUSB@@@tr1@std@@@3@@std@@@Z ; boost::foreach_detail_::is_const_<std::list<std::tr1::shared_ptr<LibUSB::Device>,std::allocator<std::tr1::shared_ptr<LibUSB::Device> > > >
	add	esp, 4
	push	eax
	lea	eax, DWORD PTR _DeviceList$[ebp]
	push	eax
	call	??$encode_type@V?$list@V?$shared_ptr@VDevice@LibUSB@@@tr1@std@@V?$allocator@V?$shared_ptr@VDevice@LibUSB@@@tr1@std@@@3@@std@@@foreach_detail_@boost@@YAPAU?$type2type@V?$list@V?$shared_ptr@VDevice@LibUSB@@@tr1@std@@V?$allocator@V?$shared_ptr@VDevice@LibUSB@@@tr1@std@@@3@@std@@U?$bool_@$0A@@mpl@boost@@@01@AAV?$list@V?$shared_ptr@VDevice@LibUSB@@@tr1@std@@V?$allocator@V?$shared_ptr@VDevice@LibUSB@@@tr1@std@@@3@@std@@PAU?$bool_@$0A@@mpl@1@@Z ; boost::foreach_detail_::encode_type<std::list<std::tr1::shared_ptr<LibUSB::Device>,std::allocator<std::tr1::shared_ptr<LibUSB::Device> > > >
	add	esp, 8
	mov	DWORD PTR tv238[ebp], eax
$LN27@FindDevice@2:
	mov	ecx, DWORD PTR tv225[ebp]
	push	ecx
	mov	edx, DWORD PTR tv238[ebp]
	push	edx
	mov	eax, DWORD PTR __foreach_col$120757[ebp]
	push	eax
	lea	ecx, DWORD PTR _$S3$121665[ebp]
	push	ecx
	call	??$end@V?$list@V?$shared_ptr@VDevice@LibUSB@@@tr1@std@@V?$allocator@V?$shared_ptr@VDevice@LibUSB@@@tr1@std@@@3@@std@@U?$bool_@$0A@@mpl@boost@@@foreach_detail_@boost@@YA?AU?$auto_any@V?$_List_iterator@V?$_List_val@V?$shared_ptr@VDevice@LibUSB@@@tr1@std@@V?$allocator@V?$shared_ptr@VDevice@LibUSB@@@tr1@std@@@3@@std@@@std@@@01@ABUauto_any_base@01@PAU?$type2type@V?$list@V?$shared_ptr@VDevice@LibUSB@@@tr1@std@@V?$allocator@V?$shared_ptr@VDevice@LibUSB@@@tr1@std@@@3@@std@@U?$bool_@$0A@@mpl@boost@@@01@PAU?$bool_@$0A@@mpl@1@@Z ; boost::foreach_detail_::end<std::list<std::tr1::shared_ptr<LibUSB::Device>,std::allocator<std::tr1::shared_ptr<LibUSB::Device> > >,boost::mpl::bool_<0> >
	add	esp, 16					; 00000010H
	mov	BYTE PTR __$EHRec$[ebp+8], 5
	lea	edx, DWORD PTR _$S3$121665[ebp]
	mov	DWORD PTR __foreach_end$121639[ebp], edx
	mov	ecx, DWORD PTR __foreach_end$121639[ebp]
	call	??Bauto_any_base@foreach_detail_@boost@@QBE_NXZ ; boost::foreach_detail_::auto_any_base::operator bool
	movzx	eax, al
	test	eax, eax
	je	SHORT $LN11@FindDevice@2
	jmp	$LN10@FindDevice@2
$LN11@FindDevice@2:
	mov	BYTE PTR __foreach_continue$121668[ebp], 1
	jmp	SHORT $LN9@FindDevice@2
$LN8@FindDevice@2:
	movzx	eax, BYTE PTR __foreach_continue$121668[ebp]
	test	eax, eax
	je	SHORT $LN9@FindDevice@2
	mov	ecx, 1
	test	ecx, ecx
	je	SHORT $LN28@FindDevice@2
	mov	DWORD PTR tv258[ebp], 0
	jmp	SHORT $LN29@FindDevice@2
$LN28@FindDevice@2:
	lea	edx, DWORD PTR _DeviceList$[ebp]
	push	edx
	call	??$is_const_@V?$list@V?$shared_ptr@VDevice@LibUSB@@@tr1@std@@V?$allocator@V?$shared_ptr@VDevice@LibUSB@@@tr1@std@@@3@@std@@@foreach_detail_@boost@@YAPAU?$is_const@V?$list@V?$shared_ptr@VDevice@LibUSB@@@tr1@std@@V?$allocator@V?$shared_ptr@VDevice@LibUSB@@@tr1@std@@@3@@std@@@1@AAV?$list@V?$shared_ptr@VDevice@LibUSB@@@tr1@std@@V?$allocator@V?$shared_ptr@VDevice@LibUSB@@@tr1@std@@@3@@std@@@Z ; boost::foreach_detail_::is_const_<std::list<std::tr1::shared_ptr<LibUSB::Device>,std::allocator<std::tr1::shared_ptr<LibUSB::Device> > > >
	add	esp, 4
	push	eax
	lea	eax, DWORD PTR _DeviceList$[ebp]
	push	eax
	call	??$encode_type@V?$list@V?$shared_ptr@VDevice@LibUSB@@@tr1@std@@V?$allocator@V?$shared_ptr@VDevice@LibUSB@@@tr1@std@@@3@@std@@@foreach_detail_@boost@@YAPAU?$type2type@V?$list@V?$shared_ptr@VDevice@LibUSB@@@tr1@std@@V?$allocator@V?$shared_ptr@VDevice@LibUSB@@@tr1@std@@@3@@std@@U?$bool_@$0A@@mpl@boost@@@01@AAV?$list@V?$shared_ptr@VDevice@LibUSB@@@tr1@std@@V?$allocator@V?$shared_ptr@VDevice@LibUSB@@@tr1@std@@@3@@std@@PAU?$bool_@$0A@@mpl@1@@Z ; boost::foreach_detail_::encode_type<std::list<std::tr1::shared_ptr<LibUSB::Device>,std::allocator<std::tr1::shared_ptr<LibUSB::Device> > > >
	add	esp, 8
	mov	DWORD PTR tv258[ebp], eax
$LN29@FindDevice@2:
	mov	ecx, DWORD PTR tv258[ebp]
	push	ecx
	mov	edx, DWORD PTR __foreach_cur$121160[ebp]
	push	edx
	call	??$next@V?$list@V?$shared_ptr@VDevice@LibUSB@@@tr1@std@@V?$allocator@V?$shared_ptr@VDevice@LibUSB@@@tr1@std@@@3@@std@@U?$bool_@$0A@@mpl@boost@@@foreach_detail_@boost@@YAXABUauto_any_base@01@PAU?$type2type@V?$list@V?$shared_ptr@VDevice@LibUSB@@@tr1@std@@V?$allocator@V?$shared_ptr@VDevice@LibUSB@@@tr1@std@@@3@@std@@U?$bool_@$0A@@mpl@boost@@@01@@Z ; boost::foreach_detail_::next<std::list<std::tr1::shared_ptr<LibUSB::Device>,std::allocator<std::tr1::shared_ptr<LibUSB::Device> > >,boost::mpl::bool_<0> >
	add	esp, 8
$LN9@FindDevice@2:
	movzx	eax, BYTE PTR __foreach_continue$121668[ebp]
	test	eax, eax
	je	$LN10@FindDevice@2
	mov	eax, 1
	test	eax, eax
	je	SHORT $LN32@FindDevice@2
	mov	DWORD PTR tv276[ebp], 0
	jmp	SHORT $LN33@FindDevice@2
$LN32@FindDevice@2:
	lea	ecx, DWORD PTR _DeviceList$[ebp]
	push	ecx
	call	??$is_const_@V?$list@V?$shared_ptr@VDevice@LibUSB@@@tr1@std@@V?$allocator@V?$shared_ptr@VDevice@LibUSB@@@tr1@std@@@3@@std@@@foreach_detail_@boost@@YAPAU?$is_const@V?$list@V?$shared_ptr@VDevice@LibUSB@@@tr1@std@@V?$allocator@V?$shared_ptr@VDevice@LibUSB@@@tr1@std@@@3@@std@@@1@AAV?$list@V?$shared_ptr@VDevice@LibUSB@@@tr1@std@@V?$allocator@V?$shared_ptr@VDevice@LibUSB@@@tr1@std@@@3@@std@@@Z ; boost::foreach_detail_::is_const_<std::list<std::tr1::shared_ptr<LibUSB::Device>,std::allocator<std::tr1::shared_ptr<LibUSB::Device> > > >
	add	esp, 4
	push	eax
	lea	edx, DWORD PTR _DeviceList$[ebp]
	push	edx
	call	??$encode_type@V?$list@V?$shared_ptr@VDevice@LibUSB@@@tr1@std@@V?$allocator@V?$shared_ptr@VDevice@LibUSB@@@tr1@std@@@3@@std@@@foreach_detail_@boost@@YAPAU?$type2type@V?$list@V?$shared_ptr@VDevice@LibUSB@@@tr1@std@@V?$allocator@V?$shared_ptr@VDevice@LibUSB@@@tr1@std@@@3@@std@@U?$bool_@$0A@@mpl@boost@@@01@AAV?$list@V?$shared_ptr@VDevice@LibUSB@@@tr1@std@@V?$allocator@V?$shared_ptr@VDevice@LibUSB@@@tr1@std@@@3@@std@@PAU?$bool_@$0A@@mpl@1@@Z ; boost::foreach_detail_::encode_type<std::list<std::tr1::shared_ptr<LibUSB::Device>,std::allocator<std::tr1::shared_ptr<LibUSB::Device> > > >
	add	esp, 8
	mov	DWORD PTR tv276[ebp], eax
$LN33@FindDevice@2:
	mov	eax, DWORD PTR tv276[ebp]
	push	eax
	mov	ecx, DWORD PTR __foreach_end$121639[ebp]
	push	ecx
	mov	edx, DWORD PTR __foreach_cur$121160[ebp]
	push	edx
	call	??$done@V?$list@V?$shared_ptr@VDevice@LibUSB@@@tr1@std@@V?$allocator@V?$shared_ptr@VDevice@LibUSB@@@tr1@std@@@3@@std@@U?$bool_@$0A@@mpl@boost@@@foreach_detail_@boost@@YA_NABUauto_any_base@01@0PAU?$type2type@V?$list@V?$shared_ptr@VDevice@LibUSB@@@tr1@std@@V?$allocator@V?$shared_ptr@VDevice@LibUSB@@@tr1@std@@@3@@std@@U?$bool_@$0A@@mpl@boost@@@01@@Z ; boost::foreach_detail_::done<std::list<std::tr1::shared_ptr<LibUSB::Device>,std::allocator<std::tr1::shared_ptr<LibUSB::Device> > >,boost::mpl::bool_<0> >
	add	esp, 12					; 0000000cH
	movzx	eax, al
	test	eax, eax
	jne	$LN10@FindDevice@2
	lea	eax, DWORD PTR __foreach_continue$121668[ebp]
	push	eax
	call	?set_false@foreach_detail_@boost@@YA_NAA_N@Z ; boost::foreach_detail_::set_false
	add	esp, 4
	movzx	ecx, al
	test	ecx, ecx
	je	SHORT $LN6@FindDevice@2
	jmp	$LN5@FindDevice@2
$LN6@FindDevice@2:
	mov	eax, 1
	test	eax, eax
	je	SHORT $LN34@FindDevice@2
	mov	DWORD PTR tv297[ebp], 0
	jmp	SHORT $LN35@FindDevice@2
$LN34@FindDevice@2:
	lea	ecx, DWORD PTR _DeviceList$[ebp]
	push	ecx
	call	??$is_const_@V?$list@V?$shared_ptr@VDevice@LibUSB@@@tr1@std@@V?$allocator@V?$shared_ptr@VDevice@LibUSB@@@tr1@std@@@3@@std@@@foreach_detail_@boost@@YAPAU?$is_const@V?$list@V?$shared_ptr@VDevice@LibUSB@@@tr1@std@@V?$allocator@V?$shared_ptr@VDevice@LibUSB@@@tr1@std@@@3@@std@@@1@AAV?$list@V?$shared_ptr@VDevice@LibUSB@@@tr1@std@@V?$allocator@V?$shared_ptr@VDevice@LibUSB@@@tr1@std@@@3@@std@@@Z ; boost::foreach_detail_::is_const_<std::list<std::tr1::shared_ptr<LibUSB::Device>,std::allocator<std::tr1::shared_ptr<LibUSB::Device> > > >
	add	esp, 4
	push	eax
	lea	edx, DWORD PTR _DeviceList$[ebp]
	push	edx
	call	??$encode_type@V?$list@V?$shared_ptr@VDevice@LibUSB@@@tr1@std@@V?$allocator@V?$shared_ptr@VDevice@LibUSB@@@tr1@std@@@3@@std@@@foreach_detail_@boost@@YAPAU?$type2type@V?$list@V?$shared_ptr@VDevice@LibUSB@@@tr1@std@@V?$allocator@V?$shared_ptr@VDevice@LibUSB@@@tr1@std@@@3@@std@@U?$bool_@$0A@@mpl@boost@@@01@AAV?$list@V?$shared_ptr@VDevice@LibUSB@@@tr1@std@@V?$allocator@V?$shared_ptr@VDevice@LibUSB@@@tr1@std@@@3@@std@@PAU?$bool_@$0A@@mpl@1@@Z ; boost::foreach_detail_::encode_type<std::list<std::tr1::shared_ptr<LibUSB::Device>,std::allocator<std::tr1::shared_ptr<LibUSB::Device> > > >
	add	esp, 8
	mov	DWORD PTR tv297[ebp], eax
$LN35@FindDevice@2:
	mov	eax, DWORD PTR tv297[ebp]
	push	eax
	mov	ecx, DWORD PTR __foreach_cur$121160[ebp]
	push	ecx
	call	??$deref@V?$list@V?$shared_ptr@VDevice@LibUSB@@@tr1@std@@V?$allocator@V?$shared_ptr@VDevice@LibUSB@@@tr1@std@@@3@@std@@U?$bool_@$0A@@mpl@boost@@@foreach_detail_@boost@@YAAAV?$shared_ptr@VDevice@LibUSB@@@tr1@std@@ABUauto_any_base@01@PAU?$type2type@V?$list@V?$shared_ptr@VDevice@LibUSB@@@tr1@std@@V?$allocator@V?$shared_ptr@VDevice@LibUSB@@@tr1@std@@@3@@std@@U?$bool_@$0A@@mpl@boost@@@01@@Z ; boost::foreach_detail_::deref<std::list<std::tr1::shared_ptr<LibUSB::Device>,std::allocator<std::tr1::shared_ptr<LibUSB::Device> > >,boost::mpl::bool_<0> >
	add	esp, 8
	mov	DWORD PTR _pDevice$121693[ebp], eax
	jmp	SHORT $LN4@FindDevice@2
$LN3@FindDevice@2:
	mov	BYTE PTR __foreach_continue$121668[ebp], 1
$LN4@FindDevice@2:
	movzx	eax, BYTE PTR __foreach_continue$121668[ebp]
	test	eax, eax
	jne	SHORT $LN5@FindDevice@2
; Line 65
	lea	eax, DWORD PTR _serialStr$[ebp]
	push	eax
	lea	ecx, DWORD PTR $T121752[ebp]
	push	ecx
	mov	ecx, DWORD PTR _pDevice$121693[ebp]
	call	??C?$shared_ptr@VDevice@LibUSB@@@tr1@std@@QBEPAVDevice@LibUSB@@XZ ; std::tr1::shared_ptr<LibUSB::Device>::operator->
	mov	ecx, eax
	call	?SerialString@Device@LibUSB@@QAE?AV?$basic_string@_WU?$char_traits@_W@std@@V?$allocator@_W@2@@std@@XZ ; LibUSB::Device::SerialString
	mov	DWORD PTR tv199[ebp], eax
	mov	edx, DWORD PTR tv199[ebp]
	mov	DWORD PTR tv326[ebp], edx
	mov	BYTE PTR __$EHRec$[ebp+8], 6
	mov	eax, DWORD PTR tv326[ebp]
	push	eax
	call	??$?8_WU?$char_traits@_W@std@@V?$allocator@_W@1@@std@@YA_NABV?$basic_string@_WU?$char_traits@_W@std@@V?$allocator@_W@2@@0@0@Z ; std::operator==<wchar_t,std::char_traits<wchar_t>,std::allocator<wchar_t> >
	add	esp, 8
	mov	BYTE PTR $T130526[ebp], al
	mov	BYTE PTR __$EHRec$[ebp+8], 5
	lea	ecx, DWORD PTR $T121752[ebp]
	call	??1?$basic_string@_WU?$char_traits@_W@std@@V?$allocator@_W@2@@std@@QAE@XZ ; std::basic_string<wchar_t,std::char_traits<wchar_t>,std::allocator<wchar_t> >::~basic_string<wchar_t,std::char_traits<wchar_t>,std::allocator<wchar_t> >
	movzx	ecx, BYTE PTR $T130526[ebp]
	test	ecx, ecx
	je	SHORT $LN1@FindDevice@2
; Line 68
	mov	eax, DWORD PTR _pDevice$121693[ebp]
	push	eax
	lea	ecx, DWORD PTR _ResultList$[ebp]
	call	?push_back@?$list@V?$shared_ptr@VDevice@LibUSB@@@tr1@std@@V?$allocator@V?$shared_ptr@VDevice@LibUSB@@@tr1@std@@@3@@std@@QAEXABV?$shared_ptr@VDevice@LibUSB@@@tr1@2@@Z ; std::list<std::tr1::shared_ptr<LibUSB::Device>,std::allocator<std::tr1::shared_ptr<LibUSB::Device> > >::push_back
; Line 69
	jmp	SHORT $LN5@FindDevice@2
$LN1@FindDevice@2:
; Line 71
	jmp	$LN3@FindDevice@2
$LN5@FindDevice@2:
	jmp	$LN8@FindDevice@2
$LN10@FindDevice@2:
	mov	BYTE PTR __$EHRec$[ebp+8], 4
	lea	ecx, DWORD PTR _$S3$121665[ebp]
	call	??1?$auto_any@V?$_List_iterator@V?$_List_val@V?$shared_ptr@VDevice@LibUSB@@@tr1@std@@V?$allocator@V?$shared_ptr@VDevice@LibUSB@@@tr1@std@@@3@@std@@@std@@@foreach_detail_@boost@@QAE@XZ
$LN12@FindDevice@2:
	mov	BYTE PTR __$EHRec$[ebp+8], 3
	lea	ecx, DWORD PTR _$S2$121636[ebp]
	call	??1?$auto_any@V?$_List_iterator@V?$_List_val@V?$shared_ptr@VDevice@LibUSB@@@tr1@std@@V?$allocator@V?$shared_ptr@VDevice@LibUSB@@@tr1@std@@@3@@std@@@std@@@foreach_detail_@boost@@QAE@XZ
$LN14@FindDevice@2:
; Line 73
	lea	eax, DWORD PTR _ResultList$[ebp]
	push	eax
	mov	ecx, DWORD PTR ___$ReturnUdt$[ebp]
	call	??0?$list@V?$shared_ptr@VDevice@LibUSB@@@tr1@std@@V?$allocator@V?$shared_ptr@VDevice@LibUSB@@@tr1@std@@@3@@std@@QAE@$$QAV01@@Z ; std::list<std::tr1::shared_ptr<LibUSB::Device>,std::allocator<std::tr1::shared_ptr<LibUSB::Device> > >::list<std::tr1::shared_ptr<LibUSB::Device>,std::allocator<std::tr1::shared_ptr<LibUSB::Device> > >
	mov	ecx, DWORD PTR $T130534[ebp]
	or	ecx, 1
	mov	DWORD PTR $T130534[ebp], ecx
	mov	BYTE PTR __$EHRec$[ebp+8], 2
	lea	ecx, DWORD PTR _ResultList$[ebp]
	call	??1?$list@V?$shared_ptr@VDevice@LibUSB@@@tr1@std@@V?$allocator@V?$shared_ptr@VDevice@LibUSB@@@tr1@std@@@3@@std@@QAE@XZ ; std::list<std::tr1::shared_ptr<LibUSB::Device>,std::allocator<std::tr1::shared_ptr<LibUSB::Device> > >::~list<std::tr1::shared_ptr<LibUSB::Device>,std::allocator<std::tr1::shared_ptr<LibUSB::Device> > >
	mov	BYTE PTR __$EHRec$[ebp+8], 1
	lea	ecx, DWORD PTR _DeviceList$[ebp]
	call	??1?$list@V?$shared_ptr@VDevice@LibUSB@@@tr1@std@@V?$allocator@V?$shared_ptr@VDevice@LibUSB@@@tr1@std@@@3@@std@@QAE@XZ ; std::list<std::tr1::shared_ptr<LibUSB::Device>,std::allocator<std::tr1::shared_ptr<LibUSB::Device> > >::~list<std::tr1::shared_ptr<LibUSB::Device>,std::allocator<std::tr1::shared_ptr<LibUSB::Device> > >
	mov	BYTE PTR __$EHRec$[ebp+8], 0
	lea	ecx, DWORD PTR _serialStr$[ebp]
	call	??1?$basic_string@_WU?$char_traits@_W@std@@V?$allocator@_W@2@@std@@QAE@XZ ; std::basic_string<wchar_t,std::char_traits<wchar_t>,std::allocator<wchar_t> >::~basic_string<wchar_t,std::char_traits<wchar_t>,std::allocator<wchar_t> >
	mov	eax, DWORD PTR ___$ReturnUdt$[ebp]
; Line 74
	push	edx
	mov	ecx, ebp
	push	eax
	lea	edx, DWORD PTR $LN52@FindDevice@2
	call	@_RTC_CheckStackVars@8
	pop	eax
	pop	edx
	mov	ecx, DWORD PTR __$EHRec$[ebp]
	mov	DWORD PTR fs:0, ecx
	pop	ecx
	pop	edi
	pop	esi
	pop	ebx
	mov	ecx, DWORD PTR __$ArrayPad$[ebp]
	xor	ecx, ebp
	call	@__security_check_cookie@4
	add	esp, 440				; 000001b8H
	cmp	ebp, esp
	call	__RTC_CheckEsp
	mov	esp, ebp
	pop	ebp
	ret	0
	npad	2
$LN52@FindDevice@2:
	DD	6
	DD	$LN51@FindDevice@2
$LN51@FindDevice@2:
	DD	-36					; ffffffdcH
	DD	16					; 00000010H
	DD	$LN44@FindDevice@2
	DD	-60					; ffffffc4H
	DD	16					; 00000010H
	DD	$LN45@FindDevice@2
	DD	-84					; ffffffacH
	DD	4
	DD	$LN46@FindDevice@2
	DD	-116					; ffffff8cH
	DD	12					; 0000000cH
	DD	$LN47@FindDevice@2
	DD	-148					; ffffff6cH
	DD	12					; 0000000cH
	DD	$LN48@FindDevice@2
	DD	-157					; ffffff63H
	DD	1
	DD	$LN49@FindDevice@2
$LN49@FindDevice@2:
	DB	95					; 0000005fH
	DB	102					; 00000066H
	DB	111					; 0000006fH
	DB	114					; 00000072H
	DB	101					; 00000065H
	DB	97					; 00000061H
	DB	99					; 00000063H
	DB	104					; 00000068H
	DB	95					; 0000005fH
	DB	99					; 00000063H
	DB	111					; 0000006fH
	DB	110					; 0000006eH
	DB	116					; 00000074H
	DB	105					; 00000069H
	DB	110					; 0000006eH
	DB	117					; 00000075H
	DB	101					; 00000065H
	DB	0
$LN48@FindDevice@2:
	DB	36					; 00000024H
	DB	83					; 00000053H
	DB	51					; 00000033H
	DB	0
$LN47@FindDevice@2:
	DB	36					; 00000024H
	DB	83					; 00000053H
	DB	50					; 00000032H
	DB	0
$LN46@FindDevice@2:
	DB	36					; 00000024H
	DB	83					; 00000053H
	DB	49					; 00000031H
	DB	0
$LN45@FindDevice@2:
	DB	82					; 00000052H
	DB	101					; 00000065H
	DB	115					; 00000073H
	DB	117					; 00000075H
	DB	108					; 0000006cH
	DB	116					; 00000074H
	DB	76					; 0000004cH
	DB	105					; 00000069H
	DB	115					; 00000073H
	DB	116					; 00000074H
	DB	0
$LN44@FindDevice@2:
	DB	68					; 00000044H
	DB	101					; 00000065H
	DB	118					; 00000076H
	DB	105					; 00000069H
	DB	99					; 00000063H
	DB	101					; 00000065H
	DB	76					; 0000004cH
	DB	105					; 00000069H
	DB	115					; 00000073H
	DB	116					; 00000074H
	DB	0
_TEXT	ENDS
;	COMDAT text$x
text$x	SEGMENT
__unwindfunclet$?FindDevice@LibUSB@1@SA?AV?$list@V?$shared_ptr@VDevice@LibUSB@@@tr1@std@@V?$allocator@V?$shared_ptr@VDevice@LibUSB@@@tr1@std@@@3@@std@@GGV?$basic_string@_WU?$char_traits@_W@std@@V?$allocator@_W@2@@3@P6A?AV?$shared_ptr@VDevice@LibUSB@@@tr1@3@V?$shared_ptr@VDeviceImpl@LibUSB@@@63@@Z@Z$0:
	lea	ecx, DWORD PTR _serialStr$[ebp]
	jmp	??1?$basic_string@_WU?$char_traits@_W@std@@V?$allocator@_W@2@@std@@QAE@XZ ; std::basic_string<wchar_t,std::char_traits<wchar_t>,std::allocator<wchar_t> >::~basic_string<wchar_t,std::char_traits<wchar_t>,std::allocator<wchar_t> >
__unwindfunclet$?FindDevice@LibUSB@1@SA?AV?$list@V?$shared_ptr@VDevice@LibUSB@@@tr1@std@@V?$allocator@V?$shared_ptr@VDevice@LibUSB@@@tr1@std@@@3@@std@@GGV?$basic_string@_WU?$char_traits@_W@std@@V?$allocator@_W@2@@3@P6A?AV?$shared_ptr@VDevice@LibUSB@@@tr1@3@V?$shared_ptr@VDeviceImpl@LibUSB@@@63@@Z@Z$1:
	lea	ecx, DWORD PTR _DeviceList$[ebp]
	jmp	??1?$list@V?$shared_ptr@VDevice@LibUSB@@@tr1@std@@V?$allocator@V?$shared_ptr@VDevice@LibUSB@@@tr1@std@@@3@@std@@QAE@XZ ; std::list<std::tr1::shared_ptr<LibUSB::Device>,std::allocator<std::tr1::shared_ptr<LibUSB::Device> > >::~list<std::tr1::shared_ptr<LibUSB::Device>,std::allocator<std::tr1::shared_ptr<LibUSB::Device> > >
__unwindfunclet$?FindDevice@LibUSB@1@SA?AV?$list@V?$shared_ptr@VDevice@LibUSB@@@tr1@std@@V?$allocator@V?$shared_ptr@VDevice@LibUSB@@@tr1@std@@@3@@std@@GGV?$basic_string@_WU?$char_traits@_W@std@@V?$allocator@_W@2@@3@P6A?AV?$shared_ptr@VDevice@LibUSB@@@tr1@3@V?$shared_ptr@VDeviceImpl@LibUSB@@@63@@Z@Z$2:
	lea	ecx, DWORD PTR _ResultList$[ebp]
	jmp	??1?$list@V?$shared_ptr@VDevice@LibUSB@@@tr1@std@@V?$allocator@V?$shared_ptr@VDevice@LibUSB@@@tr1@std@@@3@@std@@QAE@XZ ; std::list<std::tr1::shared_ptr<LibUSB::Device>,std::allocator<std::tr1::shared_ptr<LibUSB::Device> > >::~list<std::tr1::shared_ptr<LibUSB::Device>,std::allocator<std::tr1::shared_ptr<LibUSB::Device> > >
__unwindfunclet$?FindDevice@LibUSB@1@SA?AV?$list@V?$shared_ptr@VDevice@LibUSB@@@tr1@std@@V?$allocator@V?$shared_ptr@VDevice@LibUSB@@@tr1@std@@@3@@std@@GGV?$basic_string@_WU?$char_traits@_W@std@@V?$allocator@_W@2@@3@P6A?AV?$shared_ptr@VDevice@LibUSB@@@tr1@3@V?$shared_ptr@VDeviceImpl@LibUSB@@@63@@Z@Z$3:
	lea	ecx, DWORD PTR _$S2$121636[ebp]
	jmp	??1?$auto_any@V?$_List_iterator@V?$_List_val@V?$shared_ptr@VDevice@LibUSB@@@tr1@std@@V?$allocator@V?$shared_ptr@VDevice@LibUSB@@@tr1@std@@@3@@std@@@std@@@foreach_detail_@boost@@QAE@XZ
__unwindfunclet$?FindDevice@LibUSB@1@SA?AV?$list@V?$shared_ptr@VDevice@LibUSB@@@tr1@std@@V?$allocator@V?$shared_ptr@VDevice@LibUSB@@@tr1@std@@@3@@std@@GGV?$basic_string@_WU?$char_traits@_W@std@@V?$allocator@_W@2@@3@P6A?AV?$shared_ptr@VDevice@LibUSB@@@tr1@3@V?$shared_ptr@VDeviceImpl@LibUSB@@@63@@Z@Z$4:
	lea	ecx, DWORD PTR _$S3$121665[ebp]
	jmp	??1?$auto_any@V?$_List_iterator@V?$_List_val@V?$shared_ptr@VDevice@LibUSB@@@tr1@std@@V?$allocator@V?$shared_ptr@VDevice@LibUSB@@@tr1@std@@@3@@std@@@std@@@foreach_detail_@boost@@QAE@XZ
__unwindfunclet$?FindDevice@LibUSB@1@SA?AV?$list@V?$shared_ptr@VDevice@LibUSB@@@tr1@std@@V?$allocator@V?$shared_ptr@VDevice@LibUSB@@@tr1@std@@@3@@std@@GGV?$basic_string@_WU?$char_traits@_W@std@@V?$allocator@_W@2@@3@P6A?AV?$shared_ptr@VDevice@LibUSB@@@tr1@3@V?$shared_ptr@VDeviceImpl@LibUSB@@@63@@Z@Z$5:
	lea	ecx, DWORD PTR $T121752[ebp]
	jmp	??1?$basic_string@_WU?$char_traits@_W@std@@V?$allocator@_W@2@@std@@QAE@XZ ; std::basic_string<wchar_t,std::char_traits<wchar_t>,std::allocator<wchar_t> >::~basic_string<wchar_t,std::char_traits<wchar_t>,std::allocator<wchar_t> >
__unwindfunclet$?FindDevice@LibUSB@1@SA?AV?$list@V?$shared_ptr@VDevice@LibUSB@@@tr1@std@@V?$allocator@V?$shared_ptr@VDevice@LibUSB@@@tr1@std@@@3@@std@@GGV?$basic_string@_WU?$char_traits@_W@std@@V?$allocator@_W@2@@3@P6A?AV?$shared_ptr@VDevice@LibUSB@@@tr1@3@V?$shared_ptr@VDeviceImpl@LibUSB@@@63@@Z@Z$6:
	mov	eax, DWORD PTR $T130534[ebp]
	and	eax, 1
	je	$LN43@FindDevice@2
	and	DWORD PTR $T130534[ebp], -2		; fffffffeH
	mov	ecx, DWORD PTR ___$ReturnUdt$[ebp]
	jmp	??1?$list@V?$shared_ptr@VDevice@LibUSB@@@tr1@std@@V?$allocator@V?$shared_ptr@VDevice@LibUSB@@@tr1@std@@@3@@std@@QAE@XZ ; std::list<std::tr1::shared_ptr<LibUSB::Device>,std::allocator<std::tr1::shared_ptr<LibUSB::Device> > >::~list<std::tr1::shared_ptr<LibUSB::Device>,std::allocator<std::tr1::shared_ptr<LibUSB::Device> > >
$LN43@FindDevice@2:
	ret	0
__ehhandler$?FindDevice@LibUSB@1@SA?AV?$list@V?$shared_ptr@VDevice@LibUSB@@@tr1@std@@V?$allocator@V?$shared_ptr@VDevice@LibUSB@@@tr1@std@@@3@@std@@GGV?$basic_string@_WU?$char_traits@_W@std@@V?$allocator@_W@2@@3@P6A?AV?$shared_ptr@VDevice@LibUSB@@@tr1@3@V?$shared_ptr@VDeviceImpl@LibUSB@@@63@@Z@Z:
	mov	edx, DWORD PTR [esp+8]
	lea	eax, DWORD PTR [edx+12]
	mov	ecx, DWORD PTR [edx-444]
	xor	ecx, eax
	call	@__security_check_cookie@4
	mov	ecx, DWORD PTR [edx-4]
	xor	ecx, eax
	call	@__security_check_cookie@4
	mov	eax, OFFSET __ehfuncinfo$?FindDevice@LibUSB@1@SA?AV?$list@V?$shared_ptr@VDevice@LibUSB@@@tr1@std@@V?$allocator@V?$shared_ptr@VDevice@LibUSB@@@tr1@std@@@3@@std@@GGV?$basic_string@_WU?$char_traits@_W@std@@V?$allocator@_W@2@@3@P6A?AV?$shared_ptr@VDevice@LibUSB@@@tr1@3@V?$shared_ptr@VDeviceImpl@LibUSB@@@63@@Z@Z
	jmp	___CxxFrameHandler3
text$x	ENDS
?FindDevice@LibUSB@1@SA?AV?$list@V?$shared_ptr@VDevice@LibUSB@@@tr1@std@@V?$allocator@V?$shared_ptr@VDevice@LibUSB@@@tr1@std@@@3@@std@@GGV?$basic_string@_WU?$char_traits@_W@std@@V?$allocator@_W@2@@3@P6A?AV?$shared_ptr@VDevice@LibUSB@@@tr1@3@V?$shared_ptr@VDeviceImpl@LibUSB@@@63@@Z@Z ENDP ; LibUSB::LibUSB::FindDevice
; Function compile flags: /Odtp /RTCsu /ZI
;	COMDAT ??Bauto_any_base@foreach_detail_@boost@@QBE_NXZ
_TEXT	SEGMENT
_this$ = -8						; size = 4
??Bauto_any_base@foreach_detail_@boost@@QBE_NXZ PROC	; boost::foreach_detail_::auto_any_base::operator bool, COMDAT
; _this$ = ecx
; File d:\libraries\boost (win32)\include\boost\foreach.hpp
; Line 250
	push	ebp
	mov	ebp, esp
	sub	esp, 204				; 000000ccH
	push	ebx
	push	esi
	push	edi
	push	ecx
	lea	edi, DWORD PTR [ebp-204]
	mov	ecx, 51					; 00000033H
	mov	eax, -858993460				; ccccccccH
	rep stosd
	pop	ecx
	mov	DWORD PTR _this$[ebp], ecx
; Line 251
	xor	al, al
; Line 252
	pop	edi
	pop	esi
	pop	ebx
	mov	esp, ebp
	pop	ebp
	ret	0
??Bauto_any_base@foreach_detail_@boost@@QBE_NXZ ENDP	; boost::foreach_detail_::auto_any_base::operator bool
; Function compile flags: /Odtp /RTCsu /ZI
_TEXT	ENDS
;	COMDAT ?set_false@foreach_detail_@boost@@YA_NAA_N@Z
_TEXT	SEGMENT
_b$ = 8							; size = 4
?set_false@foreach_detail_@boost@@YA_NAA_N@Z PROC	; boost::foreach_detail_::set_false, COMDAT
; Line 417
	push	ebp
	mov	ebp, esp
	sub	esp, 192				; 000000c0H
	push	ebx
	push	esi
	push	edi
	lea	edi, DWORD PTR [ebp-192]
	mov	ecx, 48					; 00000030H
	mov	eax, -858993460				; ccccccccH
	rep stosd
; Line 418
	mov	eax, DWORD PTR _b$[ebp]
	mov	BYTE PTR [eax], 0
; Line 419
	xor	al, al
; Line 420
	pop	edi
	pop	esi
	pop	ebx
	mov	esp, ebp
	pop	ebp
	ret	0
?set_false@foreach_detail_@boost@@YA_NAA_N@Z ENDP	; boost::foreach_detail_::set_false
_TEXT	ENDS
PUBLIC	??1?$_List_iterator@V?$_List_val@V?$shared_ptr@VDevice@LibUSB@@@tr1@std@@V?$allocator@V?$shared_ptr@VDevice@LibUSB@@@tr1@std@@@3@@std@@@std@@QAE@XZ ; std::_List_iterator<std::_List_val<std::tr1::shared_ptr<LibUSB::Device>,std::allocator<std::tr1::shared_ptr<LibUSB::Device> > > >::~_List_iterator<std::_List_val<std::tr1::shared_ptr<LibUSB::Device>,std::allocator<std::tr1::shared_ptr<LibUSB::Device> > > >
; Function compile flags: /Odtp /RTCsu /ZI
;	COMDAT ??1?$auto_any@V?$_List_iterator@V?$_List_val@V?$shared_ptr@VDevice@LibUSB@@@tr1@std@@V?$allocator@V?$shared_ptr@VDevice@LibUSB@@@tr1@std@@@3@@std@@@std@@@foreach_detail_@boost@@QAE@XZ
_TEXT	SEGMENT
_this$ = -8						; size = 4
??1?$auto_any@V?$_List_iterator@V?$_List_val@V?$shared_ptr@VDevice@LibUSB@@@tr1@std@@V?$allocator@V?$shared_ptr@VDevice@LibUSB@@@tr1@std@@@3@@std@@@std@@@foreach_detail_@boost@@QAE@XZ PROC ; boost::foreach_detail_::auto_any<std::_List_iterator<std::_List_val<std::tr1::shared_ptr<LibUSB::Device>,std::allocator<std::tr1::shared_ptr<LibUSB::Device> > > > >::~auto_any<std::_List_iterator<std::_List_val<std::tr1::shared_ptr<LibUSB::Device>,std::allocator<std::tr1::shared_ptr<LibUSB::Device> > > > >, COMDAT
; _this$ = ecx
	push	ebp
	mov	ebp, esp
	sub	esp, 204				; 000000ccH
	push	ebx
	push	esi
	push	edi
	push	ecx
	lea	edi, DWORD PTR [ebp-204]
	mov	ecx, 51					; 00000033H
	mov	eax, -858993460				; ccccccccH
	rep stosd
	pop	ecx
	mov	DWORD PTR _this$[ebp], ecx
	mov	ecx, DWORD PTR _this$[ebp]
	call	??1?$_List_iterator@V?$_List_val@V?$shared_ptr@VDevice@LibUSB@@@tr1@std@@V?$allocator@V?$shared_ptr@VDevice@LibUSB@@@tr1@std@@@3@@std@@@std@@QAE@XZ
	pop	edi
	pop	esi
	pop	ebx
	add	esp, 204				; 000000ccH
	cmp	ebp, esp
	call	__RTC_CheckEsp
	mov	esp, ebp
	pop	ebp
	ret	0
??1?$auto_any@V?$_List_iterator@V?$_List_val@V?$shared_ptr@VDevice@LibUSB@@@tr1@std@@V?$allocator@V?$shared_ptr@VDevice@LibUSB@@@tr1@std@@@3@@std@@@std@@@foreach_detail_@boost@@QAE@XZ ENDP ; boost::foreach_detail_::auto_any<std::_List_iterator<std::_List_val<std::tr1::shared_ptr<LibUSB::Device>,std::allocator<std::tr1::shared_ptr<LibUSB::Device> > > > >::~auto_any<std::_List_iterator<std::_List_val<std::tr1::shared_ptr<LibUSB::Device>,std::allocator<std::tr1::shared_ptr<LibUSB::Device> > > > >
_TEXT	ENDS
PUBLIC	??1?$_List_const_iterator@V?$_List_val@V?$shared_ptr@VDevice@LibUSB@@@tr1@std@@V?$allocator@V?$shared_ptr@VDevice@LibUSB@@@tr1@std@@@3@@std@@@std@@QAE@XZ ; std::_List_const_iterator<std::_List_val<std::tr1::shared_ptr<LibUSB::Device>,std::allocator<std::tr1::shared_ptr<LibUSB::Device> > > >::~_List_const_iterator<std::_List_val<std::tr1::shared_ptr<LibUSB::Device>,std::allocator<std::tr1::shared_ptr<LibUSB::Device> > > >
; Function compile flags: /Odtp /RTCsu /ZI
;	COMDAT ??1?$_List_iterator@V?$_List_val@V?$shared_ptr@VDevice@LibUSB@@@tr1@std@@V?$allocator@V?$shared_ptr@VDevice@LibUSB@@@tr1@std@@@3@@std@@@std@@QAE@XZ
_TEXT	SEGMENT
_this$ = -8						; size = 4
??1?$_List_iterator@V?$_List_val@V?$shared_ptr@VDevice@LibUSB@@@tr1@std@@V?$allocator@V?$shared_ptr@VDevice@LibUSB@@@tr1@std@@@3@@std@@@std@@QAE@XZ PROC ; std::_List_iterator<std::_List_val<std::tr1::shared_ptr<LibUSB::Device>,std::allocator<std::tr1::shared_ptr<LibUSB::Device> > > >::~_List_iterator<std::_List_val<std::tr1::shared_ptr<LibUSB::Device>,std::allocator<std::tr1::shared_ptr<LibUSB::Device> > > >, COMDAT
; _this$ = ecx
	push	ebp
	mov	ebp, esp
	sub	esp, 204				; 000000ccH
	push	ebx
	push	esi
	push	edi
	push	ecx
	lea	edi, DWORD PTR [ebp-204]
	mov	ecx, 51					; 00000033H
	mov	eax, -858993460				; ccccccccH
	rep stosd
	pop	ecx
	mov	DWORD PTR _this$[ebp], ecx
	mov	ecx, DWORD PTR _this$[ebp]
	call	??1?$_List_const_iterator@V?$_List_val@V?$shared_ptr@VDevice@LibUSB@@@tr1@std@@V?$allocator@V?$shared_ptr@VDevice@LibUSB@@@tr1@std@@@3@@std@@@std@@QAE@XZ
	pop	edi
	pop	esi
	pop	ebx
	add	esp, 204				; 000000ccH
	cmp	ebp, esp
	call	__RTC_CheckEsp
	mov	esp, ebp
	pop	ebp
	ret	0
??1?$_List_iterator@V?$_List_val@V?$shared_ptr@VDevice@LibUSB@@@tr1@std@@V?$allocator@V?$shared_ptr@VDevice@LibUSB@@@tr1@std@@@3@@std@@@std@@QAE@XZ ENDP ; std::_List_iterator<std::_List_val<std::tr1::shared_ptr<LibUSB::Device>,std::allocator<std::tr1::shared_ptr<LibUSB::Device> > > >::~_List_iterator<std::_List_val<std::tr1::shared_ptr<LibUSB::Device>,std::allocator<std::tr1::shared_ptr<LibUSB::Device> > > >
_TEXT	ENDS
PUBLIC	??1?$_List_unchecked_const_iterator@V?$_List_val@V?$shared_ptr@VDevice@LibUSB@@@tr1@std@@V?$allocator@V?$shared_ptr@VDevice@LibUSB@@@tr1@std@@@3@@std@@U_Iterator_base12@2@@std@@QAE@XZ ; std::_List_unchecked_const_iterator<std::_List_val<std::tr1::shared_ptr<LibUSB::Device>,std::allocator<std::tr1::shared_ptr<LibUSB::Device> > >,std::_Iterator_base12>::~_List_unchecked_const_iterator<std::_List_val<std::tr1::shared_ptr<LibUSB::Device>,std::allocator<std::tr1::shared_ptr<LibUSB::Device> > >,std::_Iterator_base12>
; Function compile flags: /Odtp /RTCsu /ZI
;	COMDAT ??1?$_List_const_iterator@V?$_List_val@V?$shared_ptr@VDevice@LibUSB@@@tr1@std@@V?$allocator@V?$shared_ptr@VDevice@LibUSB@@@tr1@std@@@3@@std@@@std@@QAE@XZ
_TEXT	SEGMENT
_this$ = -8						; size = 4
??1?$_List_const_iterator@V?$_List_val@V?$shared_ptr@VDevice@LibUSB@@@tr1@std@@V?$allocator@V?$shared_ptr@VDevice@LibUSB@@@tr1@std@@@3@@std@@@std@@QAE@XZ PROC ; std::_List_const_iterator<std::_List_val<std::tr1::shared_ptr<LibUSB::Device>,std::allocator<std::tr1::shared_ptr<LibUSB::Device> > > >::~_List_const_iterator<std::_List_val<std::tr1::shared_ptr<LibUSB::Device>,std::allocator<std::tr1::shared_ptr<LibUSB::Device> > > >, COMDAT
; _this$ = ecx
	push	ebp
	mov	ebp, esp
	sub	esp, 204				; 000000ccH
	push	ebx
	push	esi
	push	edi
	push	ecx
	lea	edi, DWORD PTR [ebp-204]
	mov	ecx, 51					; 00000033H
	mov	eax, -858993460				; ccccccccH
	rep stosd
	pop	ecx
	mov	DWORD PTR _this$[ebp], ecx
	mov	ecx, DWORD PTR _this$[ebp]
	call	??1?$_List_unchecked_const_iterator@V?$_List_val@V?$shared_ptr@VDevice@LibUSB@@@tr1@std@@V?$allocator@V?$shared_ptr@VDevice@LibUSB@@@tr1@std@@@3@@std@@U_Iterator_base12@2@@std@@QAE@XZ
	pop	edi
	pop	esi
	pop	ebx
	add	esp, 204				; 000000ccH
	cmp	ebp, esp
	call	__RTC_CheckEsp
	mov	esp, ebp
	pop	ebp
	ret	0
??1?$_List_const_iterator@V?$_List_val@V?$shared_ptr@VDevice@LibUSB@@@tr1@std@@V?$allocator@V?$shared_ptr@VDevice@LibUSB@@@tr1@std@@@3@@std@@@std@@QAE@XZ ENDP ; std::_List_const_iterator<std::_List_val<std::tr1::shared_ptr<LibUSB::Device>,std::allocator<std::tr1::shared_ptr<LibUSB::Device> > > >::~_List_const_iterator<std::_List_val<std::tr1::shared_ptr<LibUSB::Device>,std::allocator<std::tr1::shared_ptr<LibUSB::Device> > > >
_TEXT	ENDS
PUBLIC	??1?$_Iterator012@Ubidirectional_iterator_tag@std@@V?$shared_ptr@VDevice@LibUSB@@@tr1@2@HPBV342@ABV342@U_Iterator_base12@2@@std@@QAE@XZ ; std::_Iterator012<std::bidirectional_iterator_tag,std::tr1::shared_ptr<LibUSB::Device>,int,std::tr1::shared_ptr<LibUSB::Device> const *,std::tr1::shared_ptr<LibUSB::Device> const &,std::_Iterator_base12>::~_Iterator012<std::bidirectional_iterator_tag,std::tr1::shared_ptr<LibUSB::Device>,int,std::tr1::shared_ptr<LibUSB::Device> const *,std::tr1::shared_ptr<LibUSB::Device> const &,std::_Iterator_base12>
; Function compile flags: /Odtp /RTCsu /ZI
;	COMDAT ??1?$_List_unchecked_const_iterator@V?$_List_val@V?$shared_ptr@VDevice@LibUSB@@@tr1@std@@V?$allocator@V?$shared_ptr@VDevice@LibUSB@@@tr1@std@@@3@@std@@U_Iterator_base12@2@@std@@QAE@XZ
_TEXT	SEGMENT
_this$ = -8						; size = 4
??1?$_List_unchecked_const_iterator@V?$_List_val@V?$shared_ptr@VDevice@LibUSB@@@tr1@std@@V?$allocator@V?$shared_ptr@VDevice@LibUSB@@@tr1@std@@@3@@std@@U_Iterator_base12@2@@std@@QAE@XZ PROC ; std::_List_unchecked_const_iterator<std::_List_val<std::tr1::shared_ptr<LibUSB::Device>,std::allocator<std::tr1::shared_ptr<LibUSB::Device> > >,std::_Iterator_base12>::~_List_unchecked_const_iterator<std::_List_val<std::tr1::shared_ptr<LibUSB::Device>,std::allocator<std::tr1::shared_ptr<LibUSB::Device> > >,std::_Iterator_base12>, COMDAT
; _this$ = ecx
	push	ebp
	mov	ebp, esp
	sub	esp, 204				; 000000ccH
	push	ebx
	push	esi
	push	edi
	push	ecx
	lea	edi, DWORD PTR [ebp-204]
	mov	ecx, 51					; 00000033H
	mov	eax, -858993460				; ccccccccH
	rep stosd
	pop	ecx
	mov	DWORD PTR _this$[ebp], ecx
	mov	ecx, DWORD PTR _this$[ebp]
	call	??1?$_Iterator012@Ubidirectional_iterator_tag@std@@V?$shared_ptr@VDevice@LibUSB@@@tr1@2@HPBV342@ABV342@U_Iterator_base12@2@@std@@QAE@XZ
	pop	edi
	pop	esi
	pop	ebx
	add	esp, 204				; 000000ccH
	cmp	ebp, esp
	call	__RTC_CheckEsp
	mov	esp, ebp
	pop	ebp
	ret	0
??1?$_List_unchecked_const_iterator@V?$_List_val@V?$shared_ptr@VDevice@LibUSB@@@tr1@std@@V?$allocator@V?$shared_ptr@VDevice@LibUSB@@@tr1@std@@@3@@std@@U_Iterator_base12@2@@std@@QAE@XZ ENDP ; std::_List_unchecked_const_iterator<std::_List_val<std::tr1::shared_ptr<LibUSB::Device>,std::allocator<std::tr1::shared_ptr<LibUSB::Device> > >,std::_Iterator_base12>::~_List_unchecked_const_iterator<std::_List_val<std::tr1::shared_ptr<LibUSB::Device>,std::allocator<std::tr1::shared_ptr<LibUSB::Device> > >,std::_Iterator_base12>
_TEXT	ENDS
PUBLIC	??1_Iterator_base12@std@@QAE@XZ			; std::_Iterator_base12::~_Iterator_base12
; Function compile flags: /Odtp /RTCsu /ZI
;	COMDAT ??1?$_Iterator012@Ubidirectional_iterator_tag@std@@V?$shared_ptr@VDevice@LibUSB@@@tr1@2@HPBV342@ABV342@U_Iterator_base12@2@@std@@QAE@XZ
_TEXT	SEGMENT
_this$ = -8						; size = 4
??1?$_Iterator012@Ubidirectional_iterator_tag@std@@V?$shared_ptr@VDevice@LibUSB@@@tr1@2@HPBV342@ABV342@U_Iterator_base12@2@@std@@QAE@XZ PROC ; std::_Iterator012<std::bidirectional_iterator_tag,std::tr1::shared_ptr<LibUSB::Device>,int,std::tr1::shared_ptr<LibUSB::Device> const *,std::tr1::shared_ptr<LibUSB::Device> const &,std::_Iterator_base12>::~_Iterator012<std::bidirectional_iterator_tag,std::tr1::shared_ptr<LibUSB::Device>,int,std::tr1::shared_ptr<LibUSB::Device> const *,std::tr1::shared_ptr<LibUSB::Device> const &,std::_Iterator_base12>, COMDAT
; _this$ = ecx
	push	ebp
	mov	ebp, esp
	sub	esp, 204				; 000000ccH
	push	ebx
	push	esi
	push	edi
	push	ecx
	lea	edi, DWORD PTR [ebp-204]
	mov	ecx, 51					; 00000033H
	mov	eax, -858993460				; ccccccccH
	rep stosd
	pop	ecx
	mov	DWORD PTR _this$[ebp], ecx
	mov	ecx, DWORD PTR _this$[ebp]
	call	??1_Iterator_base12@std@@QAE@XZ		; std::_Iterator_base12::~_Iterator_base12
	pop	edi
	pop	esi
	pop	ebx
	add	esp, 204				; 000000ccH
	cmp	ebp, esp
	call	__RTC_CheckEsp
	mov	esp, ebp
	pop	ebp
	ret	0
??1?$_Iterator012@Ubidirectional_iterator_tag@std@@V?$shared_ptr@VDevice@LibUSB@@@tr1@2@HPBV342@ABV342@U_Iterator_base12@2@@std@@QAE@XZ ENDP ; std::_Iterator012<std::bidirectional_iterator_tag,std::tr1::shared_ptr<LibUSB::Device>,int,std::tr1::shared_ptr<LibUSB::Device> const *,std::tr1::shared_ptr<LibUSB::Device> const &,std::_Iterator_base12>::~_Iterator012<std::bidirectional_iterator_tag,std::tr1::shared_ptr<LibUSB::Device>,int,std::tr1::shared_ptr<LibUSB::Device> const *,std::tr1::shared_ptr<LibUSB::Device> const &,std::_Iterator_base12>
_TEXT	ENDS
PUBLIC	?_Orphan_me@_Iterator_base12@std@@QAEXXZ	; std::_Iterator_base12::_Orphan_me
EXTRN	__imp_??1_Lockit@std@@QAE@XZ:PROC
EXTRN	__imp_??0_Lockit@std@@QAE@H@Z:PROC
;	COMDAT xdata$x
; File c:\program files (x86)\microsoft visual studio 10.0\vc\include\xutility
xdata$x	SEGMENT
__unwindtable$??1_Iterator_base12@std@@QAE@XZ DD 0ffffffffH
	DD	FLAT:__unwindfunclet$??1_Iterator_base12@std@@QAE@XZ$0
__ehfuncinfo$??1_Iterator_base12@std@@QAE@XZ DD 019930522H
	DD	01H
	DD	FLAT:__unwindtable$??1_Iterator_base12@std@@QAE@XZ
	DD	2 DUP(00H)
	DD	2 DUP(00H)
	DD	00H
	DD	01H
; Function compile flags: /Odtp /RTCsu /ZI
xdata$x	ENDS
;	COMDAT ??1_Iterator_base12@std@@QAE@XZ
_TEXT	SEGMENT
__Lock$ = -32						; size = 4
_this$ = -20						; size = 4
__$EHRec$ = -12						; size = 12
??1_Iterator_base12@std@@QAE@XZ PROC			; std::_Iterator_base12::~_Iterator_base12, COMDAT
; _this$ = ecx
; Line 128
	push	ebp
	mov	ebp, esp
	push	-1
	push	__ehhandler$??1_Iterator_base12@std@@QAE@XZ
	mov	eax, DWORD PTR fs:0
	push	eax
	sub	esp, 216				; 000000d8H
	push	ebx
	push	esi
	push	edi
	push	ecx
	lea	edi, DWORD PTR [ebp-228]
	mov	ecx, 54					; 00000036H
	mov	eax, -858993460				; ccccccccH
	rep stosd
	pop	ecx
	mov	eax, DWORD PTR ___security_cookie
	xor	eax, ebp
	push	eax
	lea	eax, DWORD PTR __$EHRec$[ebp]
	mov	DWORD PTR fs:0, eax
	mov	DWORD PTR _this$[ebp], ecx
; Line 130
	mov	esi, esp
	push	3
	lea	ecx, DWORD PTR __Lock$[ebp]
	call	DWORD PTR __imp_??0_Lockit@std@@QAE@H@Z
	cmp	esi, esp
	call	__RTC_CheckEsp
	mov	DWORD PTR __$EHRec$[ebp+8], 0
; Line 131
	mov	ecx, DWORD PTR _this$[ebp]
	call	?_Orphan_me@_Iterator_base12@std@@QAEXXZ ; std::_Iterator_base12::_Orphan_me
; Line 133
	mov	DWORD PTR __$EHRec$[ebp+8], -1
	mov	esi, esp
	lea	ecx, DWORD PTR __Lock$[ebp]
	call	DWORD PTR __imp_??1_Lockit@std@@QAE@XZ
	cmp	esi, esp
	call	__RTC_CheckEsp
	push	edx
	mov	ecx, ebp
	push	eax
	lea	edx, DWORD PTR $LN7@Iterator_b
	call	@_RTC_CheckStackVars@8
	pop	eax
	pop	edx
	mov	ecx, DWORD PTR __$EHRec$[ebp]
	mov	DWORD PTR fs:0, ecx
	pop	ecx
	pop	edi
	pop	esi
	pop	ebx
	add	esp, 228				; 000000e4H
	cmp	ebp, esp
	call	__RTC_CheckEsp
	mov	esp, ebp
	pop	ebp
	ret	0
	npad	2
$LN7@Iterator_b:
	DD	1
	DD	$LN6@Iterator_b
$LN6@Iterator_b:
	DD	-32					; ffffffe0H
	DD	4
	DD	$LN4@Iterator_b
$LN4@Iterator_b:
	DB	95					; 0000005fH
	DB	76					; 0000004cH
	DB	111					; 0000006fH
	DB	99					; 00000063H
	DB	107					; 0000006bH
	DB	0
_TEXT	ENDS
;	COMDAT text$x
text$x	SEGMENT
__unwindfunclet$??1_Iterator_base12@std@@QAE@XZ$0:
	mov	esi, esp
	lea	ecx, DWORD PTR __Lock$[ebp]
	call	DWORD PTR __imp_??1_Lockit@std@@QAE@XZ
	cmp	esi, esp
	jmp	__RTC_CheckEsp
__ehhandler$??1_Iterator_base12@std@@QAE@XZ:
	mov	edx, DWORD PTR [esp+8]
	lea	eax, DWORD PTR [edx+12]
	mov	ecx, DWORD PTR [edx-232]
	xor	ecx, eax
	call	@__security_check_cookie@4
	mov	eax, OFFSET __ehfuncinfo$??1_Iterator_base12@std@@QAE@XZ
	jmp	___CxxFrameHandler3
text$x	ENDS
??1_Iterator_base12@std@@QAE@XZ ENDP			; std::_Iterator_base12::~_Iterator_base12
PUBLIC	??_C@_1DC@POOIKBAO@?$AAI?$AAT?$AAE?$AAR?$AAA?$AAT?$AAO?$AAR?$AA?5?$AAL?$AAI?$AAS?$AAT?$AA?5?$AAC?$AAO?$AAR?$AAR?$AAU?$AAP?$AAT?$AAE?$AAD?$AA?$CB?$AA?$AA@ ; `string'
PUBLIC	??_C@_1JA@DBMECOPL@?$AAc?$AA?3?$AA?2?$AAp?$AAr?$AAo?$AAg?$AAr?$AAa?$AAm?$AA?5?$AAf?$AAi?$AAl?$AAe?$AAs?$AA?5?$AA?$CI?$AAx?$AA8?$AA6?$AA?$CJ?$AA?2?$AAm?$AAi?$AAc?$AAr?$AAo?$AAs?$AAo?$AAf?$AAt@ ; `string'
EXTRN	__imp_?_Debug_message@std@@YAXPB_W0I@Z:PROC
;	COMDAT ??_C@_1DC@POOIKBAO@?$AAI?$AAT?$AAE?$AAR?$AAA?$AAT?$AAO?$AAR?$AA?5?$AAL?$AAI?$AAS?$AAT?$AA?5?$AAC?$AAO?$AAR?$AAR?$AAU?$AAP?$AAT?$AAE?$AAD?$AA?$CB?$AA?$AA@
CONST	SEGMENT
??_C@_1DC@POOIKBAO@?$AAI?$AAT?$AAE?$AAR?$AAA?$AAT?$AAO?$AAR?$AA?5?$AAL?$AAI?$AAS?$AAT?$AA?5?$AAC?$AAO?$AAR?$AAR?$AAU?$AAP?$AAT?$AAE?$AAD?$AA?$CB?$AA?$AA@ DB 'I'
	DB	00H, 'T', 00H, 'E', 00H, 'R', 00H, 'A', 00H, 'T', 00H, 'O', 00H
	DB	'R', 00H, ' ', 00H, 'L', 00H, 'I', 00H, 'S', 00H, 'T', 00H, ' '
	DB	00H, 'C', 00H, 'O', 00H, 'R', 00H, 'R', 00H, 'U', 00H, 'P', 00H
	DB	'T', 00H, 'E', 00H, 'D', 00H, '!', 00H, 00H, 00H ; `string'
CONST	ENDS
;	COMDAT ??_C@_1JA@DBMECOPL@?$AAc?$AA?3?$AA?2?$AAp?$AAr?$AAo?$AAg?$AAr?$AAa?$AAm?$AA?5?$AAf?$AAi?$AAl?$AAe?$AAs?$AA?5?$AA?$CI?$AAx?$AA8?$AA6?$AA?$CJ?$AA?2?$AAm?$AAi?$AAc?$AAr?$AAo?$AAs?$AAo?$AAf?$AAt@
CONST	SEGMENT
??_C@_1JA@DBMECOPL@?$AAc?$AA?3?$AA?2?$AAp?$AAr?$AAo?$AAg?$AAr?$AAa?$AAm?$AA?5?$AAf?$AAi?$AAl?$AAe?$AAs?$AA?5?$AA?$CI?$AAx?$AA8?$AA6?$AA?$CJ?$AA?2?$AAm?$AAi?$AAc?$AAr?$AAo?$AAs?$AAo?$AAf?$AAt@ DB 'c'
	DB	00H, ':', 00H, '\', 00H, 'p', 00H, 'r', 00H, 'o', 00H, 'g', 00H
	DB	'r', 00H, 'a', 00H, 'm', 00H, ' ', 00H, 'f', 00H, 'i', 00H, 'l'
	DB	00H, 'e', 00H, 's', 00H, ' ', 00H, '(', 00H, 'x', 00H, '8', 00H
	DB	'6', 00H, ')', 00H, '\', 00H, 'm', 00H, 'i', 00H, 'c', 00H, 'r'
	DB	00H, 'o', 00H, 's', 00H, 'o', 00H, 'f', 00H, 't', 00H, ' ', 00H
	DB	'v', 00H, 'i', 00H, 's', 00H, 'u', 00H, 'a', 00H, 'l', 00H, ' '
	DB	00H, 's', 00H, 't', 00H, 'u', 00H, 'd', 00H, 'i', 00H, 'o', 00H
	DB	' ', 00H, '1', 00H, '0', 00H, '.', 00H, '0', 00H, '\', 00H, 'v'
	DB	00H, 'c', 00H, '\', 00H, 'i', 00H, 'n', 00H, 'c', 00H, 'l', 00H
	DB	'u', 00H, 'd', 00H, 'e', 00H, '\', 00H, 'x', 00H, 'u', 00H, 't'
	DB	00H, 'i', 00H, 'l', 00H, 'i', 00H, 't', 00H, 'y', 00H, 00H, 00H ; `string'
; Function compile flags: /Odtp /RTCsu /ZI
CONST	ENDS
;	COMDAT ?_Orphan_me@_Iterator_base12@std@@QAEXXZ
_TEXT	SEGMENT
__Pnext$11556 = -20					; size = 4
_this$ = -8						; size = 4
?_Orphan_me@_Iterator_base12@std@@QAEXXZ PROC		; std::_Iterator_base12::_Orphan_me, COMDAT
; _this$ = ecx
; Line 172
	push	ebp
	mov	ebp, esp
	sub	esp, 216				; 000000d8H
	push	ebx
	push	esi
	push	edi
	push	ecx
	lea	edi, DWORD PTR [ebp-216]
	mov	ecx, 54					; 00000036H
	mov	eax, -858993460				; ccccccccH
	rep stosd
	pop	ecx
	mov	DWORD PTR _this$[ebp], ecx
; Line 174
	mov	eax, DWORD PTR _this$[ebp]
	cmp	DWORD PTR [eax], 0
	je	SHORT $LN5@Orphan_me
; Line 176
	mov	eax, DWORD PTR _this$[ebp]
	mov	ecx, DWORD PTR [eax]
	add	ecx, 4
	mov	DWORD PTR __Pnext$11556[ebp], ecx
$LN3@Orphan_me:
; Line 177
	mov	eax, DWORD PTR __Pnext$11556[ebp]
	cmp	DWORD PTR [eax], 0
	je	SHORT $LN2@Orphan_me
	mov	eax, DWORD PTR __Pnext$11556[ebp]
	mov	ecx, DWORD PTR [eax]
	cmp	ecx, DWORD PTR _this$[ebp]
	je	SHORT $LN2@Orphan_me
; Line 178
	mov	eax, DWORD PTR __Pnext$11556[ebp]
	mov	ecx, DWORD PTR [eax]
	add	ecx, 4
	mov	DWORD PTR __Pnext$11556[ebp], ecx
	jmp	SHORT $LN3@Orphan_me
$LN2@Orphan_me:
; Line 180
	mov	eax, DWORD PTR __Pnext$11556[ebp]
	cmp	DWORD PTR [eax], 0
	jne	SHORT $LN1@Orphan_me
; Line 181
	mov	esi, esp
	push	181					; 000000b5H
	push	OFFSET ??_C@_1JA@DBMECOPL@?$AAc?$AA?3?$AA?2?$AAp?$AAr?$AAo?$AAg?$AAr?$AAa?$AAm?$AA?5?$AAf?$AAi?$AAl?$AAe?$AAs?$AA?5?$AA?$CI?$AAx?$AA8?$AA6?$AA?$CJ?$AA?2?$AAm?$AAi?$AAc?$AAr?$AAo?$AAs?$AAo?$AAf?$AAt@
	push	OFFSET ??_C@_1DC@POOIKBAO@?$AAI?$AAT?$AAE?$AAR?$AAA?$AAT?$AAO?$AAR?$AA?5?$AAL?$AAI?$AAS?$AAT?$AA?5?$AAC?$AAO?$AAR?$AAR?$AAU?$AAP?$AAT?$AAE?$AAD?$AA?$CB?$AA?$AA@
	call	DWORD PTR __imp_?_Debug_message@std@@YAXPB_W0I@Z
	add	esp, 12					; 0000000cH
	cmp	esi, esp
	call	__RTC_CheckEsp
$LN1@Orphan_me:
; Line 182
	mov	eax, DWORD PTR __Pnext$11556[ebp]
	mov	ecx, DWORD PTR _this$[ebp]
	mov	edx, DWORD PTR [ecx+4]
	mov	DWORD PTR [eax], edx
; Line 183
	mov	eax, DWORD PTR _this$[ebp]
	mov	DWORD PTR [eax], 0
$LN5@Orphan_me:
; Line 186
	pop	edi
	pop	esi
	pop	ebx
	add	esp, 216				; 000000d8H
	cmp	ebp, esp
	call	__RTC_CheckEsp
	mov	esp, ebp
	pop	ebp
	ret	0
?_Orphan_me@_Iterator_base12@std@@QAEXXZ ENDP		; std::_Iterator_base12::_Orphan_me
_TEXT	ENDS
PUBLIC	?FindAllDevices@LibUSB@1@SA?AV?$list@V?$shared_ptr@VDevice@LibUSB@@@tr1@std@@V?$allocator@V?$shared_ptr@VDevice@LibUSB@@@tr1@std@@@3@@std@@P6A?AV?$shared_ptr@VDevice@LibUSB@@@tr1@3@V?$shared_ptr@VDeviceImpl@LibUSB@@@53@@Z@Z ; LibUSB::LibUSB::FindAllDevices
;	COMDAT xdata$x
; File d:\workspace\libusb++\src\libusbpp.cpp
xdata$x	SEGMENT
__ehfuncinfo$?FindAllDevices@LibUSB@1@SA?AV?$list@V?$shared_ptr@VDevice@LibUSB@@@tr1@std@@V?$allocator@V?$shared_ptr@VDevice@LibUSB@@@tr1@std@@@3@@std@@P6A?AV?$shared_ptr@VDevice@LibUSB@@@tr1@3@V?$shared_ptr@VDeviceImpl@LibUSB@@@53@@Z@Z DD 019930522H
	DD	05H
	DD	FLAT:__unwindtable$?FindAllDevices@LibUSB@1@SA?AV?$list@V?$shared_ptr@VDevice@LibUSB@@@tr1@std@@V?$allocator@V?$shared_ptr@VDevice@LibUSB@@@tr1@std@@@3@@std@@P6A?AV?$shared_ptr@VDevice@LibUSB@@@tr1@3@V?$shared_ptr@VDeviceImpl@LibUSB@@@53@@Z@Z
	DD	2 DUP(00H)
	DD	2 DUP(00H)
	DD	00H
	DD	01H
__unwindtable$?FindAllDevices@LibUSB@1@SA?AV?$list@V?$shared_ptr@VDevice@LibUSB@@@tr1@std@@V?$allocator@V?$shared_ptr@VDevice@LibUSB@@@tr1@std@@@3@@std@@P6A?AV?$shared_ptr@VDevice@LibUSB@@@tr1@3@V?$shared_ptr@VDeviceImpl@LibUSB@@@53@@Z@Z DD 0ffffffffH
	DD	FLAT:__unwindfunclet$?FindAllDevices@LibUSB@1@SA?AV?$list@V?$shared_ptr@VDevice@LibUSB@@@tr1@std@@V?$allocator@V?$shared_ptr@VDevice@LibUSB@@@tr1@std@@@3@@std@@P6A?AV?$shared_ptr@VDevice@LibUSB@@@tr1@3@V?$shared_ptr@VDeviceImpl@LibUSB@@@53@@Z@Z$6
	DD	00H
	DD	FLAT:__unwindfunclet$?FindAllDevices@LibUSB@1@SA?AV?$list@V?$shared_ptr@VDevice@LibUSB@@@tr1@std@@V?$allocator@V?$shared_ptr@VDevice@LibUSB@@@tr1@std@@@3@@std@@P6A?AV?$shared_ptr@VDevice@LibUSB@@@tr1@3@V?$shared_ptr@VDeviceImpl@LibUSB@@@53@@Z@Z$0
	DD	01H
	DD	FLAT:__unwindfunclet$?FindAllDevices@LibUSB@1@SA?AV?$list@V?$shared_ptr@VDevice@LibUSB@@@tr1@std@@V?$allocator@V?$shared_ptr@VDevice@LibUSB@@@tr1@std@@@3@@std@@P6A?AV?$shared_ptr@VDevice@LibUSB@@@tr1@3@V?$shared_ptr@VDeviceImpl@LibUSB@@@53@@Z@Z$1
	DD	02H
	DD	FLAT:__unwindfunclet$?FindAllDevices@LibUSB@1@SA?AV?$list@V?$shared_ptr@VDevice@LibUSB@@@tr1@std@@V?$allocator@V?$shared_ptr@VDevice@LibUSB@@@tr1@std@@@3@@std@@P6A?AV?$shared_ptr@VDevice@LibUSB@@@tr1@3@V?$shared_ptr@VDeviceImpl@LibUSB@@@53@@Z@Z$3
	DD	02H
	DD	FLAT:__unwindfunclet$?FindAllDevices@LibUSB@1@SA?AV?$list@V?$shared_ptr@VDevice@LibUSB@@@tr1@std@@V?$allocator@V?$shared_ptr@VDevice@LibUSB@@@tr1@std@@@3@@std@@P6A?AV?$shared_ptr@VDevice@LibUSB@@@tr1@3@V?$shared_ptr@VDeviceImpl@LibUSB@@@53@@Z@Z$4
; Function compile flags: /Odtp /RTCsu /ZI
xdata$x	ENDS
;	COMDAT ?FindAllDevices@LibUSB@1@SA?AV?$list@V?$shared_ptr@VDevice@LibUSB@@@tr1@std@@V?$allocator@V?$shared_ptr@VDevice@LibUSB@@@tr1@std@@@3@@std@@P6A?AV?$shared_ptr@VDevice@LibUSB@@@tr1@3@V?$shared_ptr@VDeviceImpl@LibUSB@@@53@@Z@Z
_TEXT	SEGMENT
tv172 = -368						; size = 4
tv157 = -368						; size = 4
tv176 = -364						; size = 4
tv170 = -364						; size = 4
tv175 = -360						; size = 4
tv169 = -360						; size = 4
$T130585 = -352						; size = 4
$T130586 = -340						; size = 8
$T130587 = -324						; size = 4
$T130588 = -312						; size = 4
$T130589 = -300						; size = 4
$T130599 = -288						; size = 4
_pDevice$121816 = -84					; size = 8
_i$121811 = -68						; size = 4
_deviceList$ = -56					; size = 16
_NumResults$ = -32					; size = 4
_device_list$ = -20					; size = 4
__$EHRec$ = -12						; size = 12
___$ReturnUdt$ = 8					; size = 4
_factory$ = 12						; size = 4
?FindAllDevices@LibUSB@1@SA?AV?$list@V?$shared_ptr@VDevice@LibUSB@@@tr1@std@@V?$allocator@V?$shared_ptr@VDevice@LibUSB@@@tr1@std@@@3@@std@@P6A?AV?$shared_ptr@VDevice@LibUSB@@@tr1@3@V?$shared_ptr@VDeviceImpl@LibUSB@@@53@@Z@Z PROC ; LibUSB::LibUSB::FindAllDevices, COMDAT
; Line 77
	push	ebp
	mov	ebp, esp
	push	-1
	push	__ehhandler$?FindAllDevices@LibUSB@1@SA?AV?$list@V?$shared_ptr@VDevice@LibUSB@@@tr1@std@@V?$allocator@V?$shared_ptr@VDevice@LibUSB@@@tr1@std@@@3@@std@@P6A?AV?$shared_ptr@VDevice@LibUSB@@@tr1@3@V?$shared_ptr@VDeviceImpl@LibUSB@@@53@@Z@Z
	mov	eax, DWORD PTR fs:0
	push	eax
	sub	esp, 356				; 00000164H
	push	ebx
	push	esi
	push	edi
	lea	edi, DWORD PTR [ebp-368]
	mov	ecx, 89					; 00000059H
	mov	eax, -858993460				; ccccccccH
	rep stosd
	mov	eax, DWORD PTR ___security_cookie
	xor	eax, ebp
	push	eax
	lea	eax, DWORD PTR __$EHRec$[ebp]
	mov	DWORD PTR fs:0, eax
	mov	DWORD PTR $T130599[ebp], 0
; Line 80
	call	?Initialize@LibUSB@1@CAXXZ		; LibUSB::LibUSB::Initialize
; Line 83
	mov	DWORD PTR _device_list$[ebp], 0
; Line 85
	mov	ecx, OFFSET ?Impl_@LibUSB@1@0V?$shared_ptr@VLibUSBImpl@LibUSB@@@tr1@std@@A ; LibUSB::LibUSB::Impl_
	call	??C?$shared_ptr@VLibUSBImpl@LibUSB@@@tr1@std@@QBEPAVLibUSBImpl@LibUSB@@XZ ; std::tr1::shared_ptr<LibUSB::LibUSBImpl>::operator->
	lea	eax, DWORD PTR _device_list$[ebp]
	push	eax
	mov	ecx, OFFSET ?pLibusb_context@LibUSBImpl@LibUSB@@2V?$shared_ptr@Ulibusb_context@@@tr1@std@@A ; LibUSB::LibUSBImpl::pLibusb_context
	call	?get@?$shared_ptr@Ulibusb_context@@@tr1@std@@QBEPAUlibusb_context@@XZ ; std::tr1::shared_ptr<libusb_context>::get
	push	eax
	call	_libusb_get_device_list@8
	mov	DWORD PTR _NumResults$[ebp], eax
; Line 89
	lea	ecx, DWORD PTR _deviceList$[ebp]
	call	??0?$list@V?$shared_ptr@VDevice@LibUSB@@@tr1@std@@V?$allocator@V?$shared_ptr@VDevice@LibUSB@@@tr1@std@@@3@@std@@QAE@XZ ; std::list<std::tr1::shared_ptr<LibUSB::Device>,std::allocator<std::tr1::shared_ptr<LibUSB::Device> > >::list<std::tr1::shared_ptr<LibUSB::Device>,std::allocator<std::tr1::shared_ptr<LibUSB::Device> > >
	mov	DWORD PTR __$EHRec$[ebp+8], 1
; Line 91
	mov	DWORD PTR _i$121811[ebp], 0
	jmp	SHORT $LN5@FindAllDev
$LN4@FindAllDev:
	mov	eax, DWORD PTR _i$121811[ebp]
	add	eax, 1
	mov	DWORD PTR _i$121811[ebp], eax
$LN5@FindAllDev:
	mov	eax, DWORD PTR _i$121811[ebp]
	cmp	eax, DWORD PTR _NumResults$[ebp]
	jge	$LN3@FindAllDev
; Line 95
	lea	ecx, DWORD PTR _pDevice$121816[ebp]
	call	??0?$shared_ptr@VDevice@LibUSB@@@tr1@std@@QAE@XZ ; std::tr1::shared_ptr<LibUSB::Device>::shared_ptr<LibUSB::Device>
	mov	BYTE PTR __$EHRec$[ebp+8], 2
; Line 96
	cmp	DWORD PTR _factory$[ebp], 0
	je	SHORT $LN2@FindAllDev
; Line 98
	mov	eax, DWORD PTR _i$121811[ebp]
	mov	ecx, DWORD PTR _device_list$[ebp]
	lea	edx, DWORD PTR [ecx+eax*4]
	sub	esp, 8
	mov	eax, esp
	mov	DWORD PTR $T130585[ebp], esp
	push	edx
	push	eax
	call	??$make_shared@VDeviceImpl@LibUSB@@AAPAUlibusb_device@@@tr1@std@@YA?AV?$shared_ptr@VDeviceImpl@LibUSB@@@01@AAPAUlibusb_device@@@Z ; std::tr1::make_shared<LibUSB::DeviceImpl,libusb_device * &>
	add	esp, 8
	mov	DWORD PTR tv169[ebp], eax
	lea	ecx, DWORD PTR $T130586[ebp]
	push	ecx
	call	DWORD PTR _factory$[ebp]
	add	esp, 12					; 0000000cH
	mov	DWORD PTR tv170[ebp], eax
	mov	edx, DWORD PTR tv170[ebp]
	mov	DWORD PTR tv172[ebp], edx
	mov	BYTE PTR __$EHRec$[ebp+8], 3
	mov	eax, DWORD PTR tv172[ebp]
	push	eax
	lea	ecx, DWORD PTR _pDevice$121816[ebp]
	call	??4?$shared_ptr@VDevice@LibUSB@@@tr1@std@@QAEAAV012@$$QAV012@@Z ; std::tr1::shared_ptr<LibUSB::Device>::operator=
	mov	BYTE PTR __$EHRec$[ebp+8], 2
	lea	ecx, DWORD PTR $T130586[ebp]
	call	??1?$shared_ptr@VDevice@LibUSB@@@tr1@std@@QAE@XZ ; std::tr1::shared_ptr<LibUSB::Device>::~shared_ptr<LibUSB::Device>
; Line 100
	jmp	$LN1@FindAllDev
$LN2@FindAllDev:
; Line 102
	push	20					; 00000014H
	call	??2@YAPAXI@Z				; operator new
	add	esp, 4
	mov	DWORD PTR $T130588[ebp], eax
	mov	BYTE PTR __$EHRec$[ebp+8], 4
	cmp	DWORD PTR $T130588[ebp], 0
	je	SHORT $LN8@FindAllDev
	mov	eax, DWORD PTR _i$121811[ebp]
	mov	ecx, DWORD PTR _device_list$[ebp]
	lea	edx, DWORD PTR [ecx+eax*4]
	sub	esp, 8
	mov	eax, esp
	mov	DWORD PTR $T130589[ebp], esp
	push	edx
	push	eax
	call	??$make_shared@VDeviceImpl@LibUSB@@AAPAUlibusb_device@@@tr1@std@@YA?AV?$shared_ptr@VDeviceImpl@LibUSB@@@01@AAPAUlibusb_device@@@Z ; std::tr1::make_shared<LibUSB::DeviceImpl,libusb_device * &>
	add	esp, 8
	mov	DWORD PTR tv175[ebp], eax
	mov	ecx, DWORD PTR $T130588[ebp]
	call	??0Device@LibUSB@@QAE@V?$shared_ptr@VDeviceImpl@LibUSB@@@tr1@std@@@Z ; LibUSB::Device::Device
	mov	DWORD PTR tv176[ebp], eax
	mov	ecx, DWORD PTR tv176[ebp]
	mov	DWORD PTR tv157[ebp], ecx
	jmp	SHORT $LN9@FindAllDev
$LN8@FindAllDev:
	mov	DWORD PTR tv157[ebp], 0
$LN9@FindAllDev:
	mov	edx, DWORD PTR tv157[ebp]
	mov	DWORD PTR $T130587[ebp], edx
	mov	BYTE PTR __$EHRec$[ebp+8], 2
	mov	eax, DWORD PTR $T130587[ebp]
	push	eax
	lea	ecx, DWORD PTR _pDevice$121816[ebp]
	call	??$reset@VDevice@LibUSB@@@?$shared_ptr@VDevice@LibUSB@@@tr1@std@@QAEXPAVDevice@LibUSB@@@Z ; std::tr1::shared_ptr<LibUSB::Device>::reset<LibUSB::Device>
$LN1@FindAllDev:
; Line 106
	lea	eax, DWORD PTR _pDevice$121816[ebp]
	push	eax
	lea	ecx, DWORD PTR _deviceList$[ebp]
	call	?push_back@?$list@V?$shared_ptr@VDevice@LibUSB@@@tr1@std@@V?$allocator@V?$shared_ptr@VDevice@LibUSB@@@tr1@std@@@3@@std@@QAEXABV?$shared_ptr@VDevice@LibUSB@@@tr1@2@@Z ; std::list<std::tr1::shared_ptr<LibUSB::Device>,std::allocator<std::tr1::shared_ptr<LibUSB::Device> > >::push_back
; Line 108
	mov	BYTE PTR __$EHRec$[ebp+8], 1
	lea	ecx, DWORD PTR _pDevice$121816[ebp]
	call	??1?$shared_ptr@VDevice@LibUSB@@@tr1@std@@QAE@XZ ; std::tr1::shared_ptr<LibUSB::Device>::~shared_ptr<LibUSB::Device>
	jmp	$LN4@FindAllDev
$LN3@FindAllDev:
; Line 111
	push	1
	mov	eax, DWORD PTR _device_list$[ebp]
	push	eax
	call	_libusb_free_device_list@8
; Line 113
	lea	eax, DWORD PTR _deviceList$[ebp]
	push	eax
	mov	ecx, DWORD PTR ___$ReturnUdt$[ebp]
	call	??0?$list@V?$shared_ptr@VDevice@LibUSB@@@tr1@std@@V?$allocator@V?$shared_ptr@VDevice@LibUSB@@@tr1@std@@@3@@std@@QAE@$$QAV01@@Z ; std::list<std::tr1::shared_ptr<LibUSB::Device>,std::allocator<std::tr1::shared_ptr<LibUSB::Device> > >::list<std::tr1::shared_ptr<LibUSB::Device>,std::allocator<std::tr1::shared_ptr<LibUSB::Device> > >
	mov	ecx, DWORD PTR $T130599[ebp]
	or	ecx, 1
	mov	DWORD PTR $T130599[ebp], ecx
	mov	BYTE PTR __$EHRec$[ebp+8], 0
	lea	ecx, DWORD PTR _deviceList$[ebp]
	call	??1?$list@V?$shared_ptr@VDevice@LibUSB@@@tr1@std@@V?$allocator@V?$shared_ptr@VDevice@LibUSB@@@tr1@std@@@3@@std@@QAE@XZ ; std::list<std::tr1::shared_ptr<LibUSB::Device>,std::allocator<std::tr1::shared_ptr<LibUSB::Device> > >::~list<std::tr1::shared_ptr<LibUSB::Device>,std::allocator<std::tr1::shared_ptr<LibUSB::Device> > >
	mov	eax, DWORD PTR ___$ReturnUdt$[ebp]
; Line 115
	push	edx
	mov	ecx, ebp
	push	eax
	lea	edx, DWORD PTR $LN23@FindAllDev
	call	@_RTC_CheckStackVars@8
	pop	eax
	pop	edx
	mov	ecx, DWORD PTR __$EHRec$[ebp]
	mov	DWORD PTR fs:0, ecx
	pop	ecx
	pop	edi
	pop	esi
	pop	ebx
	add	esp, 368				; 00000170H
	cmp	ebp, esp
	call	__RTC_CheckEsp
	mov	esp, ebp
	pop	ebp
	ret	0
$LN23@FindAllDev:
	DD	3
	DD	$LN22@FindAllDev
$LN22@FindAllDev:
	DD	-20					; ffffffecH
	DD	4
	DD	$LN18@FindAllDev
	DD	-56					; ffffffc8H
	DD	16					; 00000010H
	DD	$LN19@FindAllDev
	DD	-84					; ffffffacH
	DD	8
	DD	$LN20@FindAllDev
$LN20@FindAllDev:
	DB	112					; 00000070H
	DB	68					; 00000044H
	DB	101					; 00000065H
	DB	118					; 00000076H
	DB	105					; 00000069H
	DB	99					; 00000063H
	DB	101					; 00000065H
	DB	0
$LN19@FindAllDev:
	DB	100					; 00000064H
	DB	101					; 00000065H
	DB	118					; 00000076H
	DB	105					; 00000069H
	DB	99					; 00000063H
	DB	101					; 00000065H
	DB	76					; 0000004cH
	DB	105					; 00000069H
	DB	115					; 00000073H
	DB	116					; 00000074H
	DB	0
$LN18@FindAllDev:
	DB	100					; 00000064H
	DB	101					; 00000065H
	DB	118					; 00000076H
	DB	105					; 00000069H
	DB	99					; 00000063H
	DB	101					; 00000065H
	DB	95					; 0000005fH
	DB	108					; 0000006cH
	DB	105					; 00000069H
	DB	115					; 00000073H
	DB	116					; 00000074H
	DB	0
_TEXT	ENDS
;	COMDAT text$x
text$x	SEGMENT
__unwindfunclet$?FindAllDevices@LibUSB@1@SA?AV?$list@V?$shared_ptr@VDevice@LibUSB@@@tr1@std@@V?$allocator@V?$shared_ptr@VDevice@LibUSB@@@tr1@std@@@3@@std@@P6A?AV?$shared_ptr@VDevice@LibUSB@@@tr1@3@V?$shared_ptr@VDeviceImpl@LibUSB@@@53@@Z@Z$0:
	lea	ecx, DWORD PTR _deviceList$[ebp]
	jmp	??1?$list@V?$shared_ptr@VDevice@LibUSB@@@tr1@std@@V?$allocator@V?$shared_ptr@VDevice@LibUSB@@@tr1@std@@@3@@std@@QAE@XZ ; std::list<std::tr1::shared_ptr<LibUSB::Device>,std::allocator<std::tr1::shared_ptr<LibUSB::Device> > >::~list<std::tr1::shared_ptr<LibUSB::Device>,std::allocator<std::tr1::shared_ptr<LibUSB::Device> > >
__unwindfunclet$?FindAllDevices@LibUSB@1@SA?AV?$list@V?$shared_ptr@VDevice@LibUSB@@@tr1@std@@V?$allocator@V?$shared_ptr@VDevice@LibUSB@@@tr1@std@@@3@@std@@P6A?AV?$shared_ptr@VDevice@LibUSB@@@tr1@3@V?$shared_ptr@VDeviceImpl@LibUSB@@@53@@Z@Z$1:
	lea	ecx, DWORD PTR _pDevice$121816[ebp]
	jmp	??1?$shared_ptr@VDevice@LibUSB@@@tr1@std@@QAE@XZ ; std::tr1::shared_ptr<LibUSB::Device>::~shared_ptr<LibUSB::Device>
__unwindfunclet$?FindAllDevices@LibUSB@1@SA?AV?$list@V?$shared_ptr@VDevice@LibUSB@@@tr1@std@@V?$allocator@V?$shared_ptr@VDevice@LibUSB@@@tr1@std@@@3@@std@@P6A?AV?$shared_ptr@VDevice@LibUSB@@@tr1@3@V?$shared_ptr@VDeviceImpl@LibUSB@@@53@@Z@Z$3:
	lea	ecx, DWORD PTR $T130586[ebp]
	jmp	??1?$shared_ptr@VDevice@LibUSB@@@tr1@std@@QAE@XZ ; std::tr1::shared_ptr<LibUSB::Device>::~shared_ptr<LibUSB::Device>
__unwindfunclet$?FindAllDevices@LibUSB@1@SA?AV?$list@V?$shared_ptr@VDevice@LibUSB@@@tr1@std@@V?$allocator@V?$shared_ptr@VDevice@LibUSB@@@tr1@std@@@3@@std@@P6A?AV?$shared_ptr@VDevice@LibUSB@@@tr1@3@V?$shared_ptr@VDeviceImpl@LibUSB@@@53@@Z@Z$4:
	mov	eax, DWORD PTR $T130588[ebp]
	push	eax
	call	??3@YAXPAX@Z				; operator delete
	pop	ecx
	ret	0
__unwindfunclet$?FindAllDevices@LibUSB@1@SA?AV?$list@V?$shared_ptr@VDevice@LibUSB@@@tr1@std@@V?$allocator@V?$shared_ptr@VDevice@LibUSB@@@tr1@std@@@3@@std@@P6A?AV?$shared_ptr@VDevice@LibUSB@@@tr1@3@V?$shared_ptr@VDeviceImpl@LibUSB@@@53@@Z@Z$6:
	mov	eax, DWORD PTR $T130599[ebp]
	and	eax, 1
	je	$LN17@FindAllDev
	and	DWORD PTR $T130599[ebp], -2		; fffffffeH
	mov	ecx, DWORD PTR ___$ReturnUdt$[ebp]
	jmp	??1?$list@V?$shared_ptr@VDevice@LibUSB@@@tr1@std@@V?$allocator@V?$shared_ptr@VDevice@LibUSB@@@tr1@std@@@3@@std@@QAE@XZ ; std::list<std::tr1::shared_ptr<LibUSB::Device>,std::allocator<std::tr1::shared_ptr<LibUSB::Device> > >::~list<std::tr1::shared_ptr<LibUSB::Device>,std::allocator<std::tr1::shared_ptr<LibUSB::Device> > >
$LN17@FindAllDev:
	ret	0
__ehhandler$?FindAllDevices@LibUSB@1@SA?AV?$list@V?$shared_ptr@VDevice@LibUSB@@@tr1@std@@V?$allocator@V?$shared_ptr@VDevice@LibUSB@@@tr1@std@@@3@@std@@P6A?AV?$shared_ptr@VDevice@LibUSB@@@tr1@3@V?$shared_ptr@VDeviceImpl@LibUSB@@@53@@Z@Z:
	mov	edx, DWORD PTR [esp+8]
	lea	eax, DWORD PTR [edx+12]
	mov	ecx, DWORD PTR [edx-372]
	xor	ecx, eax
	call	@__security_check_cookie@4
	mov	eax, OFFSET __ehfuncinfo$?FindAllDevices@LibUSB@1@SA?AV?$list@V?$shared_ptr@VDevice@LibUSB@@@tr1@std@@V?$allocator@V?$shared_ptr@VDevice@LibUSB@@@tr1@std@@@3@@std@@P6A?AV?$shared_ptr@VDevice@LibUSB@@@tr1@3@V?$shared_ptr@VDeviceImpl@LibUSB@@@53@@Z@Z
	jmp	___CxxFrameHandler3
text$x	ENDS
?FindAllDevices@LibUSB@1@SA?AV?$list@V?$shared_ptr@VDevice@LibUSB@@@tr1@std@@V?$allocator@V?$shared_ptr@VDevice@LibUSB@@@tr1@std@@@3@@std@@P6A?AV?$shared_ptr@VDevice@LibUSB@@@tr1@3@V?$shared_ptr@VDeviceImpl@LibUSB@@@53@@Z@Z ENDP ; LibUSB::LibUSB::FindAllDevices
PUBLIC	??$reset@VLibUSBImpl@LibUSB@@@?$shared_ptr@VLibUSBImpl@LibUSB@@@tr1@std@@QAEXPAVLibUSBImpl@LibUSB@@@Z ; std::tr1::shared_ptr<LibUSB::LibUSBImpl>::reset<LibUSB::LibUSBImpl>
PUBLIC	?get@?$shared_ptr@VLibUSBImpl@LibUSB@@@tr1@std@@QBEPAVLibUSBImpl@LibUSB@@XZ ; std::tr1::shared_ptr<LibUSB::LibUSBImpl>::get
EXTRN	??0LibUSBImpl@LibUSB@@QAE@XZ:PROC		; LibUSB::LibUSBImpl::LibUSBImpl
;	COMDAT xdata$x
xdata$x	SEGMENT
__unwindtable$?Initialize@LibUSB@1@CAXXZ DD 0ffffffffH
	DD	FLAT:__unwindfunclet$?Initialize@LibUSB@1@CAXXZ$0
__ehfuncinfo$?Initialize@LibUSB@1@CAXXZ DD 019930522H
	DD	01H
	DD	FLAT:__unwindtable$?Initialize@LibUSB@1@CAXXZ
	DD	2 DUP(00H)
	DD	2 DUP(00H)
	DD	00H
	DD	01H
; Function compile flags: /Odtp /RTCsu /ZI
xdata$x	ENDS
;	COMDAT ?Initialize@LibUSB@1@CAXXZ
_TEXT	SEGMENT
tv75 = -232						; size = 4
$T130614 = -224						; size = 4
$T130615 = -212						; size = 4
__$EHRec$ = -12						; size = 12
?Initialize@LibUSB@1@CAXXZ PROC				; LibUSB::LibUSB::Initialize, COMDAT
; Line 118
	push	ebp
	mov	ebp, esp
	push	-1
	push	__ehhandler$?Initialize@LibUSB@1@CAXXZ
	mov	eax, DWORD PTR fs:0
	push	eax
	sub	esp, 220				; 000000dcH
	push	ebx
	push	esi
	push	edi
	lea	edi, DWORD PTR [ebp-232]
	mov	ecx, 55					; 00000037H
	mov	eax, -858993460				; ccccccccH
	rep stosd
	mov	eax, DWORD PTR ___security_cookie
	xor	eax, ebp
	push	eax
	lea	eax, DWORD PTR __$EHRec$[ebp]
	mov	DWORD PTR fs:0, eax
; Line 120
	mov	ecx, OFFSET ?Impl_@LibUSB@1@0V?$shared_ptr@VLibUSBImpl@LibUSB@@@tr1@std@@A ; LibUSB::LibUSB::Impl_
	call	?get@?$shared_ptr@VLibUSBImpl@LibUSB@@@tr1@std@@QBEPAVLibUSBImpl@LibUSB@@XZ ; std::tr1::shared_ptr<LibUSB::LibUSBImpl>::get
	test	eax, eax
	jne	SHORT $LN2@Initialize
; Line 122
	push	1
	call	??2@YAPAXI@Z				; operator new
	add	esp, 4
	mov	DWORD PTR $T130615[ebp], eax
	mov	DWORD PTR __$EHRec$[ebp+8], 0
	cmp	DWORD PTR $T130615[ebp], 0
	je	SHORT $LN4@Initialize
	mov	ecx, DWORD PTR $T130615[ebp]
	call	??0LibUSBImpl@LibUSB@@QAE@XZ		; LibUSB::LibUSBImpl::LibUSBImpl
	mov	DWORD PTR tv75[ebp], eax
	jmp	SHORT $LN5@Initialize
$LN4@Initialize:
	mov	DWORD PTR tv75[ebp], 0
$LN5@Initialize:
	mov	eax, DWORD PTR tv75[ebp]
	mov	DWORD PTR $T130614[ebp], eax
	mov	DWORD PTR __$EHRec$[ebp+8], -1
	mov	ecx, DWORD PTR $T130614[ebp]
	push	ecx
	mov	ecx, OFFSET ?Impl_@LibUSB@1@0V?$shared_ptr@VLibUSBImpl@LibUSB@@@tr1@std@@A ; LibUSB::LibUSB::Impl_
	call	??$reset@VLibUSBImpl@LibUSB@@@?$shared_ptr@VLibUSBImpl@LibUSB@@@tr1@std@@QAEXPAVLibUSBImpl@LibUSB@@@Z ; std::tr1::shared_ptr<LibUSB::LibUSBImpl>::reset<LibUSB::LibUSBImpl>
$LN2@Initialize:
; Line 124
	mov	ecx, DWORD PTR __$EHRec$[ebp]
	mov	DWORD PTR fs:0, ecx
	pop	ecx
	pop	edi
	pop	esi
	pop	ebx
	add	esp, 232				; 000000e8H
	cmp	ebp, esp
	call	__RTC_CheckEsp
	mov	esp, ebp
	pop	ebp
	ret	0
_TEXT	ENDS
;	COMDAT text$x
text$x	SEGMENT
__unwindfunclet$?Initialize@LibUSB@1@CAXXZ$0:
	mov	eax, DWORD PTR $T130615[ebp]
	push	eax
	call	??3@YAXPAX@Z				; operator delete
	pop	ecx
	ret	0
__ehhandler$?Initialize@LibUSB@1@CAXXZ:
	mov	edx, DWORD PTR [esp+8]
	lea	eax, DWORD PTR [edx+12]
	mov	ecx, DWORD PTR [edx-236]
	xor	ecx, eax
	call	@__security_check_cookie@4
	mov	eax, OFFSET __ehfuncinfo$?Initialize@LibUSB@1@CAXXZ
	jmp	___CxxFrameHandler3
text$x	ENDS
?Initialize@LibUSB@1@CAXXZ ENDP				; LibUSB::LibUSB::Initialize
PUBLIC	??1?$_String_val@_WV?$allocator@_W@std@@@std@@QAE@XZ ; std::_String_val<wchar_t,std::allocator<wchar_t> >::~_String_val<wchar_t,std::allocator<wchar_t> >
PUBLIC	?_Tidy@?$basic_string@_WU?$char_traits@_W@std@@V?$allocator@_W@2@@std@@QAEX_NI@Z ; std::basic_string<wchar_t,std::char_traits<wchar_t>,std::allocator<wchar_t> >::_Tidy
;	COMDAT xdata$x
; File c:\program files (x86)\microsoft visual studio 10.0\vc\include\xstring
xdata$x	SEGMENT
__unwindtable$??1?$basic_string@_WU?$char_traits@_W@std@@V?$allocator@_W@2@@std@@QAE@XZ DD 0ffffffffH
	DD	FLAT:__unwindfunclet$??1?$basic_string@_WU?$char_traits@_W@std@@V?$allocator@_W@2@@std@@QAE@XZ$0
__ehfuncinfo$??1?$basic_string@_WU?$char_traits@_W@std@@V?$allocator@_W@2@@std@@QAE@XZ DD 019930522H
	DD	01H
	DD	FLAT:__unwindtable$??1?$basic_string@_WU?$char_traits@_W@std@@V?$allocator@_W@2@@std@@QAE@XZ
	DD	2 DUP(00H)
	DD	2 DUP(00H)
	DD	00H
	DD	01H
; Function compile flags: /Odtp /RTCsu /ZI
xdata$x	ENDS
;	COMDAT ??1?$basic_string@_WU?$char_traits@_W@std@@V?$allocator@_W@2@@std@@QAE@XZ
_TEXT	SEGMENT
_this$ = -20						; size = 4
__$EHRec$ = -12						; size = 12
??1?$basic_string@_WU?$char_traits@_W@std@@V?$allocator@_W@2@@std@@QAE@XZ PROC ; std::basic_string<wchar_t,std::char_traits<wchar_t>,std::allocator<wchar_t> >::~basic_string<wchar_t,std::char_traits<wchar_t>,std::allocator<wchar_t> >, COMDAT
; _this$ = ecx
; Line 752
	push	ebp
	mov	ebp, esp
	push	-1
	push	__ehhandler$??1?$basic_string@_WU?$char_traits@_W@std@@V?$allocator@_W@2@@std@@QAE@XZ
	mov	eax, DWORD PTR fs:0
	push	eax
	sub	esp, 204				; 000000ccH
	push	ebx
	push	esi
	push	edi
	push	ecx
	lea	edi, DWORD PTR [ebp-216]
	mov	ecx, 51					; 00000033H
	mov	eax, -858993460				; ccccccccH
	rep stosd
	pop	ecx
	mov	eax, DWORD PTR ___security_cookie
	xor	eax, ebp
	push	eax
	lea	eax, DWORD PTR __$EHRec$[ebp]
	mov	DWORD PTR fs:0, eax
	mov	DWORD PTR _this$[ebp], ecx
	mov	DWORD PTR __$EHRec$[ebp+8], 0
; Line 753
	push	0
	push	1
	mov	ecx, DWORD PTR _this$[ebp]
	call	?_Tidy@?$basic_string@_WU?$char_traits@_W@std@@V?$allocator@_W@2@@std@@QAEX_NI@Z ; std::basic_string<wchar_t,std::char_traits<wchar_t>,std::allocator<wchar_t> >::_Tidy
; Line 754
	mov	DWORD PTR __$EHRec$[ebp+8], -1
	mov	ecx, DWORD PTR _this$[ebp]
	call	??1?$_String_val@_WV?$allocator@_W@std@@@std@@QAE@XZ ; std::_String_val<wchar_t,std::allocator<wchar_t> >::~_String_val<wchar_t,std::allocator<wchar_t> >
	mov	ecx, DWORD PTR __$EHRec$[ebp]
	mov	DWORD PTR fs:0, ecx
	pop	ecx
	pop	edi
	pop	esi
	pop	ebx
	add	esp, 216				; 000000d8H
	cmp	ebp, esp
	call	__RTC_CheckEsp
	mov	esp, ebp
	pop	ebp
	ret	0
_TEXT	ENDS
;	COMDAT text$x
text$x	SEGMENT
__unwindfunclet$??1?$basic_string@_WU?$char_traits@_W@std@@V?$allocator@_W@2@@std@@QAE@XZ$0:
	mov	ecx, DWORD PTR _this$[ebp]
	jmp	??1?$_String_val@_WV?$allocator@_W@std@@@std@@QAE@XZ ; std::_String_val<wchar_t,std::allocator<wchar_t> >::~_String_val<wchar_t,std::allocator<wchar_t> >
__ehhandler$??1?$basic_string@_WU?$char_traits@_W@std@@V?$allocator@_W@2@@std@@QAE@XZ:
	mov	edx, DWORD PTR [esp+8]
	lea	eax, DWORD PTR [edx+12]
	mov	ecx, DWORD PTR [edx-220]
	xor	ecx, eax
	call	@__security_check_cookie@4
	mov	eax, OFFSET __ehfuncinfo$??1?$basic_string@_WU?$char_traits@_W@std@@V?$allocator@_W@2@@std@@QAE@XZ
	jmp	___CxxFrameHandler3
text$x	ENDS
??1?$basic_string@_WU?$char_traits@_W@std@@V?$allocator@_W@2@@std@@QAE@XZ ENDP ; std::basic_string<wchar_t,std::char_traits<wchar_t>,std::allocator<wchar_t> >::~basic_string<wchar_t,std::char_traits<wchar_t>,std::allocator<wchar_t> >
PUBLIC	?_Get@?$_Ptr_base@VLibUSBImpl@LibUSB@@@tr1@std@@QBEPAVLibUSBImpl@LibUSB@@XZ ; std::tr1::_Ptr_base<LibUSB::LibUSBImpl>::_Get
; Function compile flags: /Odtp /RTCsu /ZI
;	COMDAT ?get@?$shared_ptr@VLibUSBImpl@LibUSB@@@tr1@std@@QBEPAVLibUSBImpl@LibUSB@@XZ
_TEXT	SEGMENT
_this$ = -8						; size = 4
?get@?$shared_ptr@VLibUSBImpl@LibUSB@@@tr1@std@@QBEPAVLibUSBImpl@LibUSB@@XZ PROC ; std::tr1::shared_ptr<LibUSB::LibUSBImpl>::get, COMDAT
; _this$ = ecx
; File c:\program files (x86)\microsoft visual studio 10.0\vc\include\memory
; Line 1633
	push	ebp
	mov	ebp, esp
	sub	esp, 204				; 000000ccH
	push	ebx
	push	esi
	push	edi
	push	ecx
	lea	edi, DWORD PTR [ebp-204]
	mov	ecx, 51					; 00000033H
	mov	eax, -858993460				; ccccccccH
	rep stosd
	pop	ecx
	mov	DWORD PTR _this$[ebp], ecx
; Line 1634
	mov	ecx, DWORD PTR _this$[ebp]
	call	?_Get@?$_Ptr_base@VLibUSBImpl@LibUSB@@@tr1@std@@QBEPAVLibUSBImpl@LibUSB@@XZ ; std::tr1::_Ptr_base<LibUSB::LibUSBImpl>::_Get
; Line 1635
	pop	edi
	pop	esi
	pop	ebx
	add	esp, 204				; 000000ccH
	cmp	ebp, esp
	call	__RTC_CheckEsp
	mov	esp, ebp
	pop	ebp
	ret	0
?get@?$shared_ptr@VLibUSBImpl@LibUSB@@@tr1@std@@QBEPAVLibUSBImpl@LibUSB@@XZ ENDP ; std::tr1::shared_ptr<LibUSB::LibUSBImpl>::get
; Function compile flags: /Odtp /RTCsu /ZI
_TEXT	ENDS
;	COMDAT ??C?$shared_ptr@VLibUSBImpl@LibUSB@@@tr1@std@@QBEPAVLibUSBImpl@LibUSB@@XZ
_TEXT	SEGMENT
_this$ = -8						; size = 4
??C?$shared_ptr@VLibUSBImpl@LibUSB@@@tr1@std@@QBEPAVLibUSBImpl@LibUSB@@XZ PROC ; std::tr1::shared_ptr<LibUSB::LibUSBImpl>::operator->, COMDAT
; _this$ = ecx
; Line 1643
	push	ebp
	mov	ebp, esp
	sub	esp, 204				; 000000ccH
	push	ebx
	push	esi
	push	edi
	push	ecx
	lea	edi, DWORD PTR [ebp-204]
	mov	ecx, 51					; 00000033H
	mov	eax, -858993460				; ccccccccH
	rep stosd
	pop	ecx
	mov	DWORD PTR _this$[ebp], ecx
; Line 1644
	mov	ecx, DWORD PTR _this$[ebp]
	call	?_Get@?$_Ptr_base@VLibUSBImpl@LibUSB@@@tr1@std@@QBEPAVLibUSBImpl@LibUSB@@XZ ; std::tr1::_Ptr_base<LibUSB::LibUSBImpl>::_Get
; Line 1645
	pop	edi
	pop	esi
	pop	ebx
	add	esp, 204				; 000000ccH
	cmp	ebp, esp
	call	__RTC_CheckEsp
	mov	esp, ebp
	pop	ebp
	ret	0
??C?$shared_ptr@VLibUSBImpl@LibUSB@@@tr1@std@@QBEPAVLibUSBImpl@LibUSB@@XZ ENDP ; std::tr1::shared_ptr<LibUSB::LibUSBImpl>::operator->
_TEXT	ENDS
PUBLIC	?_Get@?$_Ptr_base@Ulibusb_context@@@tr1@std@@QBEPAUlibusb_context@@XZ ; std::tr1::_Ptr_base<libusb_context>::_Get
; Function compile flags: /Odtp /RTCsu /ZI
;	COMDAT ?get@?$shared_ptr@Ulibusb_context@@@tr1@std@@QBEPAUlibusb_context@@XZ
_TEXT	SEGMENT
_this$ = -8						; size = 4
?get@?$shared_ptr@Ulibusb_context@@@tr1@std@@QBEPAUlibusb_context@@XZ PROC ; std::tr1::shared_ptr<libusb_context>::get, COMDAT
; _this$ = ecx
; Line 1633
	push	ebp
	mov	ebp, esp
	sub	esp, 204				; 000000ccH
	push	ebx
	push	esi
	push	edi
	push	ecx
	lea	edi, DWORD PTR [ebp-204]
	mov	ecx, 51					; 00000033H
	mov	eax, -858993460				; ccccccccH
	rep stosd
	pop	ecx
	mov	DWORD PTR _this$[ebp], ecx
; Line 1634
	mov	ecx, DWORD PTR _this$[ebp]
	call	?_Get@?$_Ptr_base@Ulibusb_context@@@tr1@std@@QBEPAUlibusb_context@@XZ ; std::tr1::_Ptr_base<libusb_context>::_Get
; Line 1635
	pop	edi
	pop	esi
	pop	ebx
	add	esp, 204				; 000000ccH
	cmp	ebp, esp
	call	__RTC_CheckEsp
	mov	esp, ebp
	pop	ebp
	ret	0
?get@?$shared_ptr@Ulibusb_context@@@tr1@std@@QBEPAUlibusb_context@@XZ ENDP ; std::tr1::shared_ptr<libusb_context>::get
_TEXT	ENDS
PUBLIC	??0?$_List_val@V?$shared_ptr@VDevice@LibUSB@@@tr1@std@@V?$allocator@V?$shared_ptr@VDevice@LibUSB@@@tr1@std@@@3@@std@@QAE@V?$allocator@V?$shared_ptr@VDevice@LibUSB@@@tr1@std@@@1@@Z ; std::_List_val<std::tr1::shared_ptr<LibUSB::Device>,std::allocator<std::tr1::shared_ptr<LibUSB::Device> > >::_List_val<std::tr1::shared_ptr<LibUSB::Device>,std::allocator<std::tr1::shared_ptr<LibUSB::Device> > >
PUBLIC	??0?$allocator@V?$shared_ptr@VDevice@LibUSB@@@tr1@std@@@std@@QAE@XZ ; std::allocator<std::tr1::shared_ptr<LibUSB::Device> >::allocator<std::tr1::shared_ptr<LibUSB::Device> >
; Function compile flags: /Odtp /RTCsu /ZI
;	COMDAT ??0?$list@V?$shared_ptr@VDevice@LibUSB@@@tr1@std@@V?$allocator@V?$shared_ptr@VDevice@LibUSB@@@tr1@std@@@3@@std@@QAE@XZ
_TEXT	SEGMENT
$T130642 = -212						; size = 4
_this$ = -8						; size = 4
??0?$list@V?$shared_ptr@VDevice@LibUSB@@@tr1@std@@V?$allocator@V?$shared_ptr@VDevice@LibUSB@@@tr1@std@@@3@@std@@QAE@XZ PROC ; std::list<std::tr1::shared_ptr<LibUSB::Device>,std::allocator<std::tr1::shared_ptr<LibUSB::Device> > >::list<std::tr1::shared_ptr<LibUSB::Device>,std::allocator<std::tr1::shared_ptr<LibUSB::Device> > >, COMDAT
; _this$ = ecx
; File c:\program files (x86)\microsoft visual studio 10.0\vc\include\list
; Line 607
	push	ebp
	mov	ebp, esp
	sub	esp, 216				; 000000d8H
	push	ebx
	push	esi
	push	edi
	push	ecx
	lea	edi, DWORD PTR [ebp-216]
	mov	ecx, 54					; 00000036H
	mov	eax, -858993460				; ccccccccH
	rep stosd
	pop	ecx
	mov	DWORD PTR _this$[ebp], ecx
	push	ecx
	mov	ecx, esp
	mov	DWORD PTR $T130642[ebp], esp
	call	??0?$allocator@V?$shared_ptr@VDevice@LibUSB@@@tr1@std@@@std@@QAE@XZ ; std::allocator<std::tr1::shared_ptr<LibUSB::Device> >::allocator<std::tr1::shared_ptr<LibUSB::Device> >
	mov	ecx, DWORD PTR _this$[ebp]
	call	??0?$_List_val@V?$shared_ptr@VDevice@LibUSB@@@tr1@std@@V?$allocator@V?$shared_ptr@VDevice@LibUSB@@@tr1@std@@@3@@std@@QAE@V?$allocator@V?$shared_ptr@VDevice@LibUSB@@@tr1@std@@@1@@Z ; std::_List_val<std::tr1::shared_ptr<LibUSB::Device>,std::allocator<std::tr1::shared_ptr<LibUSB::Device> > >::_List_val<std::tr1::shared_ptr<LibUSB::Device>,std::allocator<std::tr1::shared_ptr<LibUSB::Device> > >
; Line 608
	mov	eax, DWORD PTR _this$[ebp]
	pop	edi
	pop	esi
	pop	ebx
	add	esp, 216				; 000000d8H
	cmp	ebp, esp
	call	__RTC_CheckEsp
	mov	esp, ebp
	pop	ebp
	ret	0
??0?$list@V?$shared_ptr@VDevice@LibUSB@@@tr1@std@@V?$allocator@V?$shared_ptr@VDevice@LibUSB@@@tr1@std@@@3@@std@@QAE@XZ ENDP ; std::list<std::tr1::shared_ptr<LibUSB::Device>,std::allocator<std::tr1::shared_ptr<LibUSB::Device> > >::list<std::tr1::shared_ptr<LibUSB::Device>,std::allocator<std::tr1::shared_ptr<LibUSB::Device> > >
_TEXT	ENDS
PUBLIC	??1?$_List_val@V?$shared_ptr@VDevice@LibUSB@@@tr1@std@@V?$allocator@V?$shared_ptr@VDevice@LibUSB@@@tr1@std@@@3@@std@@QAE@XZ ; std::_List_val<std::tr1::shared_ptr<LibUSB::Device>,std::allocator<std::tr1::shared_ptr<LibUSB::Device> > >::~_List_val<std::tr1::shared_ptr<LibUSB::Device>,std::allocator<std::tr1::shared_ptr<LibUSB::Device> > >
PUBLIC	?_Assign_rv@?$list@V?$shared_ptr@VDevice@LibUSB@@@tr1@std@@V?$allocator@V?$shared_ptr@VDevice@LibUSB@@@tr1@std@@@3@@std@@QAEX$$QAV12@@Z ; std::list<std::tr1::shared_ptr<LibUSB::Device>,std::allocator<std::tr1::shared_ptr<LibUSB::Device> > >::_Assign_rv
PUBLIC	??$forward@V?$list@V?$shared_ptr@VDevice@LibUSB@@@tr1@std@@V?$allocator@V?$shared_ptr@VDevice@LibUSB@@@tr1@std@@@3@@std@@@std@@YA$$QAV?$list@V?$shared_ptr@VDevice@LibUSB@@@tr1@std@@V?$allocator@V?$shared_ptr@VDevice@LibUSB@@@tr1@std@@@3@@0@AAV10@@Z ; std::forward<std::list<std::tr1::shared_ptr<LibUSB::Device>,std::allocator<std::tr1::shared_ptr<LibUSB::Device> > > >
PUBLIC	??0?$allocator@V?$shared_ptr@VDevice@LibUSB@@@tr1@std@@@std@@QAE@ABV01@@Z ; std::allocator<std::tr1::shared_ptr<LibUSB::Device> >::allocator<std::tr1::shared_ptr<LibUSB::Device> >
;	COMDAT xdata$x
xdata$x	SEGMENT
__unwindtable$??0?$list@V?$shared_ptr@VDevice@LibUSB@@@tr1@std@@V?$allocator@V?$shared_ptr@VDevice@LibUSB@@@tr1@std@@@3@@std@@QAE@$$QAV01@@Z DD 0ffffffffH
	DD	FLAT:__unwindfunclet$??0?$list@V?$shared_ptr@VDevice@LibUSB@@@tr1@std@@V?$allocator@V?$shared_ptr@VDevice@LibUSB@@@tr1@std@@@3@@std@@QAE@$$QAV01@@Z$0
__ehfuncinfo$??0?$list@V?$shared_ptr@VDevice@LibUSB@@@tr1@std@@V?$allocator@V?$shared_ptr@VDevice@LibUSB@@@tr1@std@@@3@@std@@QAE@$$QAV01@@Z DD 019930522H
	DD	01H
	DD	FLAT:__unwindtable$??0?$list@V?$shared_ptr@VDevice@LibUSB@@@tr1@std@@V?$allocator@V?$shared_ptr@VDevice@LibUSB@@@tr1@std@@@3@@std@@QAE@$$QAV01@@Z
	DD	2 DUP(00H)
	DD	2 DUP(00H)
	DD	00H
	DD	01H
; Function compile flags: /Odtp /RTCsu /ZI
xdata$x	ENDS
;	COMDAT ??0?$list@V?$shared_ptr@VDevice@LibUSB@@@tr1@std@@V?$allocator@V?$shared_ptr@VDevice@LibUSB@@@tr1@std@@@3@@std@@QAE@$$QAV01@@Z
_TEXT	SEGMENT
$T130646 = -224						; size = 4
_this$ = -20						; size = 4
__$EHRec$ = -12						; size = 12
__Right$ = 8						; size = 4
??0?$list@V?$shared_ptr@VDevice@LibUSB@@@tr1@std@@V?$allocator@V?$shared_ptr@VDevice@LibUSB@@@tr1@std@@@3@@std@@QAE@$$QAV01@@Z PROC ; std::list<std::tr1::shared_ptr<LibUSB::Device>,std::allocator<std::tr1::shared_ptr<LibUSB::Device> > >::list<std::tr1::shared_ptr<LibUSB::Device>,std::allocator<std::tr1::shared_ptr<LibUSB::Device> > >, COMDAT
; _this$ = ecx
; Line 689
	push	ebp
	mov	ebp, esp
	push	-1
	push	__ehhandler$??0?$list@V?$shared_ptr@VDevice@LibUSB@@@tr1@std@@V?$allocator@V?$shared_ptr@VDevice@LibUSB@@@tr1@std@@@3@@std@@QAE@$$QAV01@@Z
	mov	eax, DWORD PTR fs:0
	push	eax
	sub	esp, 216				; 000000d8H
	push	ebx
	push	esi
	push	edi
	push	ecx
	lea	edi, DWORD PTR [ebp-228]
	mov	ecx, 54					; 00000036H
	mov	eax, -858993460				; ccccccccH
	rep stosd
	pop	ecx
	mov	eax, DWORD PTR ___security_cookie
	xor	eax, ebp
	push	eax
	lea	eax, DWORD PTR __$EHRec$[ebp]
	mov	DWORD PTR fs:0, eax
	mov	DWORD PTR _this$[ebp], ecx
	mov	eax, DWORD PTR __Right$[ebp]
	add	eax, 13					; 0000000dH
	push	ecx
	mov	ecx, esp
	mov	DWORD PTR $T130646[ebp], esp
	push	eax
	call	??0?$allocator@V?$shared_ptr@VDevice@LibUSB@@@tr1@std@@@std@@QAE@ABV01@@Z ; std::allocator<std::tr1::shared_ptr<LibUSB::Device> >::allocator<std::tr1::shared_ptr<LibUSB::Device> >
	mov	ecx, DWORD PTR _this$[ebp]
	call	??0?$_List_val@V?$shared_ptr@VDevice@LibUSB@@@tr1@std@@V?$allocator@V?$shared_ptr@VDevice@LibUSB@@@tr1@std@@@3@@std@@QAE@V?$allocator@V?$shared_ptr@VDevice@LibUSB@@@tr1@std@@@1@@Z ; std::_List_val<std::tr1::shared_ptr<LibUSB::Device>,std::allocator<std::tr1::shared_ptr<LibUSB::Device> > >::_List_val<std::tr1::shared_ptr<LibUSB::Device>,std::allocator<std::tr1::shared_ptr<LibUSB::Device> > >
	mov	DWORD PTR __$EHRec$[ebp+8], 0
; Line 690
	mov	eax, DWORD PTR __Right$[ebp]
	push	eax
	call	??$forward@V?$list@V?$shared_ptr@VDevice@LibUSB@@@tr1@std@@V?$allocator@V?$shared_ptr@VDevice@LibUSB@@@tr1@std@@@3@@std@@@std@@YA$$QAV?$list@V?$shared_ptr@VDevice@LibUSB@@@tr1@std@@V?$allocator@V?$shared_ptr@VDevice@LibUSB@@@tr1@std@@@3@@0@AAV10@@Z ; std::forward<std::list<std::tr1::shared_ptr<LibUSB::Device>,std::allocator<std::tr1::shared_ptr<LibUSB::Device> > > >
	add	esp, 4
	push	eax
	mov	ecx, DWORD PTR _this$[ebp]
	call	?_Assign_rv@?$list@V?$shared_ptr@VDevice@LibUSB@@@tr1@std@@V?$allocator@V?$shared_ptr@VDevice@LibUSB@@@tr1@std@@@3@@std@@QAEX$$QAV12@@Z ; std::list<std::tr1::shared_ptr<LibUSB::Device>,std::allocator<std::tr1::shared_ptr<LibUSB::Device> > >::_Assign_rv
; Line 691
	mov	DWORD PTR __$EHRec$[ebp+8], -1
	mov	eax, DWORD PTR _this$[ebp]
	mov	ecx, DWORD PTR __$EHRec$[ebp]
	mov	DWORD PTR fs:0, ecx
	pop	ecx
	pop	edi
	pop	esi
	pop	ebx
	add	esp, 228				; 000000e4H
	cmp	ebp, esp
	call	__RTC_CheckEsp
	mov	esp, ebp
	pop	ebp
	ret	4
_TEXT	ENDS
;	COMDAT text$x
text$x	SEGMENT
__unwindfunclet$??0?$list@V?$shared_ptr@VDevice@LibUSB@@@tr1@std@@V?$allocator@V?$shared_ptr@VDevice@LibUSB@@@tr1@std@@@3@@std@@QAE@$$QAV01@@Z$0:
	mov	ecx, DWORD PTR _this$[ebp]
	jmp	??1?$_List_val@V?$shared_ptr@VDevice@LibUSB@@@tr1@std@@V?$allocator@V?$shared_ptr@VDevice@LibUSB@@@tr1@std@@@3@@std@@QAE@XZ ; std::_List_val<std::tr1::shared_ptr<LibUSB::Device>,std::allocator<std::tr1::shared_ptr<LibUSB::Device> > >::~_List_val<std::tr1::shared_ptr<LibUSB::Device>,std::allocator<std::tr1::shared_ptr<LibUSB::Device> > >
__ehhandler$??0?$list@V?$shared_ptr@VDevice@LibUSB@@@tr1@std@@V?$allocator@V?$shared_ptr@VDevice@LibUSB@@@tr1@std@@@3@@std@@QAE@$$QAV01@@Z:
	mov	edx, DWORD PTR [esp+8]
	lea	eax, DWORD PTR [edx+12]
	mov	ecx, DWORD PTR [edx-232]
	xor	ecx, eax
	call	@__security_check_cookie@4
	mov	eax, OFFSET __ehfuncinfo$??0?$list@V?$shared_ptr@VDevice@LibUSB@@@tr1@std@@V?$allocator@V?$shared_ptr@VDevice@LibUSB@@@tr1@std@@@3@@std@@QAE@$$QAV01@@Z
	jmp	___CxxFrameHandler3
text$x	ENDS
??0?$list@V?$shared_ptr@VDevice@LibUSB@@@tr1@std@@V?$allocator@V?$shared_ptr@VDevice@LibUSB@@@tr1@std@@@3@@std@@QAE@$$QAV01@@Z ENDP ; std::list<std::tr1::shared_ptr<LibUSB::Device>,std::allocator<std::tr1::shared_ptr<LibUSB::Device> > >::list<std::tr1::shared_ptr<LibUSB::Device>,std::allocator<std::tr1::shared_ptr<LibUSB::Device> > >
PUBLIC	?_Tidy@?$list@V?$shared_ptr@VDevice@LibUSB@@@tr1@std@@V?$allocator@V?$shared_ptr@VDevice@LibUSB@@@tr1@std@@@3@@std@@QAEXXZ ; std::list<std::tr1::shared_ptr<LibUSB::Device>,std::allocator<std::tr1::shared_ptr<LibUSB::Device> > >::_Tidy
;	COMDAT xdata$x
xdata$x	SEGMENT
__unwindtable$??1?$list@V?$shared_ptr@VDevice@LibUSB@@@tr1@std@@V?$allocator@V?$shared_ptr@VDevice@LibUSB@@@tr1@std@@@3@@std@@QAE@XZ DD 0ffffffffH
	DD	FLAT:__unwindfunclet$??1?$list@V?$shared_ptr@VDevice@LibUSB@@@tr1@std@@V?$allocator@V?$shared_ptr@VDevice@LibUSB@@@tr1@std@@@3@@std@@QAE@XZ$0
__ehfuncinfo$??1?$list@V?$shared_ptr@VDevice@LibUSB@@@tr1@std@@V?$allocator@V?$shared_ptr@VDevice@LibUSB@@@tr1@std@@@3@@std@@QAE@XZ DD 019930522H
	DD	01H
	DD	FLAT:__unwindtable$??1?$list@V?$shared_ptr@VDevice@LibUSB@@@tr1@std@@V?$allocator@V?$shared_ptr@VDevice@LibUSB@@@tr1@std@@@3@@std@@QAE@XZ
	DD	2 DUP(00H)
	DD	2 DUP(00H)
	DD	00H
	DD	01H
; Function compile flags: /Odtp /RTCsu /ZI
xdata$x	ENDS
;	COMDAT ??1?$list@V?$shared_ptr@VDevice@LibUSB@@@tr1@std@@V?$allocator@V?$shared_ptr@VDevice@LibUSB@@@tr1@std@@@3@@std@@QAE@XZ
_TEXT	SEGMENT
_this$ = -20						; size = 4
__$EHRec$ = -12						; size = 12
??1?$list@V?$shared_ptr@VDevice@LibUSB@@@tr1@std@@V?$allocator@V?$shared_ptr@VDevice@LibUSB@@@tr1@std@@@3@@std@@QAE@XZ PROC ; std::list<std::tr1::shared_ptr<LibUSB::Device>,std::allocator<std::tr1::shared_ptr<LibUSB::Device> > >::~list<std::tr1::shared_ptr<LibUSB::Device>,std::allocator<std::tr1::shared_ptr<LibUSB::Device> > >, COMDAT
; _this$ = ecx
; Line 769
	push	ebp
	mov	ebp, esp
	push	-1
	push	__ehhandler$??1?$list@V?$shared_ptr@VDevice@LibUSB@@@tr1@std@@V?$allocator@V?$shared_ptr@VDevice@LibUSB@@@tr1@std@@@3@@std@@QAE@XZ
	mov	eax, DWORD PTR fs:0
	push	eax
	sub	esp, 204				; 000000ccH
	push	ebx
	push	esi
	push	edi
	push	ecx
	lea	edi, DWORD PTR [ebp-216]
	mov	ecx, 51					; 00000033H
	mov	eax, -858993460				; ccccccccH
	rep stosd
	pop	ecx
	mov	eax, DWORD PTR ___security_cookie
	xor	eax, ebp
	push	eax
	lea	eax, DWORD PTR __$EHRec$[ebp]
	mov	DWORD PTR fs:0, eax
	mov	DWORD PTR _this$[ebp], ecx
	mov	DWORD PTR __$EHRec$[ebp+8], 0
; Line 770
	mov	ecx, DWORD PTR _this$[ebp]
	call	?_Tidy@?$list@V?$shared_ptr@VDevice@LibUSB@@@tr1@std@@V?$allocator@V?$shared_ptr@VDevice@LibUSB@@@tr1@std@@@3@@std@@QAEXXZ ; std::list<std::tr1::shared_ptr<LibUSB::Device>,std::allocator<std::tr1::shared_ptr<LibUSB::Device> > >::_Tidy
; Line 771
	mov	DWORD PTR __$EHRec$[ebp+8], -1
	mov	ecx, DWORD PTR _this$[ebp]
	call	??1?$_List_val@V?$shared_ptr@VDevice@LibUSB@@@tr1@std@@V?$allocator@V?$shared_ptr@VDevice@LibUSB@@@tr1@std@@@3@@std@@QAE@XZ ; std::_List_val<std::tr1::shared_ptr<LibUSB::Device>,std::allocator<std::tr1::shared_ptr<LibUSB::Device> > >::~_List_val<std::tr1::shared_ptr<LibUSB::Device>,std::allocator<std::tr1::shared_ptr<LibUSB::Device> > >
	mov	ecx, DWORD PTR __$EHRec$[ebp]
	mov	DWORD PTR fs:0, ecx
	pop	ecx
	pop	edi
	pop	esi
	pop	ebx
	add	esp, 216				; 000000d8H
	cmp	ebp, esp
	call	__RTC_CheckEsp
	mov	esp, ebp
	pop	ebp
	ret	0
_TEXT	ENDS
;	COMDAT text$x
text$x	SEGMENT
__unwindfunclet$??1?$list@V?$shared_ptr@VDevice@LibUSB@@@tr1@std@@V?$allocator@V?$shared_ptr@VDevice@LibUSB@@@tr1@std@@@3@@std@@QAE@XZ$0:
	mov	ecx, DWORD PTR _this$[ebp]
	jmp	??1?$_List_val@V?$shared_ptr@VDevice@LibUSB@@@tr1@std@@V?$allocator@V?$shared_ptr@VDevice@LibUSB@@@tr1@std@@@3@@std@@QAE@XZ ; std::_List_val<std::tr1::shared_ptr<LibUSB::Device>,std::allocator<std::tr1::shared_ptr<LibUSB::Device> > >::~_List_val<std::tr1::shared_ptr<LibUSB::Device>,std::allocator<std::tr1::shared_ptr<LibUSB::Device> > >
__ehhandler$??1?$list@V?$shared_ptr@VDevice@LibUSB@@@tr1@std@@V?$allocator@V?$shared_ptr@VDevice@LibUSB@@@tr1@std@@@3@@std@@QAE@XZ:
	mov	edx, DWORD PTR [esp+8]
	lea	eax, DWORD PTR [edx+12]
	mov	ecx, DWORD PTR [edx-220]
	xor	ecx, eax
	call	@__security_check_cookie@4
	mov	eax, OFFSET __ehfuncinfo$??1?$list@V?$shared_ptr@VDevice@LibUSB@@@tr1@std@@V?$allocator@V?$shared_ptr@VDevice@LibUSB@@@tr1@std@@@3@@std@@QAE@XZ
	jmp	___CxxFrameHandler3
text$x	ENDS
??1?$list@V?$shared_ptr@VDevice@LibUSB@@@tr1@std@@V?$allocator@V?$shared_ptr@VDevice@LibUSB@@@tr1@std@@@3@@std@@QAE@XZ ENDP ; std::list<std::tr1::shared_ptr<LibUSB::Device>,std::allocator<std::tr1::shared_ptr<LibUSB::Device> > >::~list<std::tr1::shared_ptr<LibUSB::Device>,std::allocator<std::tr1::shared_ptr<LibUSB::Device> > >
PUBLIC	?_Insert@?$list@V?$shared_ptr@VDevice@LibUSB@@@tr1@std@@V?$allocator@V?$shared_ptr@VDevice@LibUSB@@@tr1@std@@@3@@std@@QAEXV?$_List_const_iterator@V?$_List_val@V?$shared_ptr@VDevice@LibUSB@@@tr1@std@@V?$allocator@V?$shared_ptr@VDevice@LibUSB@@@tr1@std@@@3@@std@@@2@ABV?$shared_ptr@VDevice@LibUSB@@@tr1@2@@Z ; std::list<std::tr1::shared_ptr<LibUSB::Device>,std::allocator<std::tr1::shared_ptr<LibUSB::Device> > >::_Insert
PUBLIC	??0?$_List_const_iterator@V?$_List_val@V?$shared_ptr@VDevice@LibUSB@@@tr1@std@@V?$allocator@V?$shared_ptr@VDevice@LibUSB@@@tr1@std@@@3@@std@@@std@@QAE@ABV01@@Z ; std::_List_const_iterator<std::_List_val<std::tr1::shared_ptr<LibUSB::Device>,std::allocator<std::tr1::shared_ptr<LibUSB::Device> > > >::_List_const_iterator<std::_List_val<std::tr1::shared_ptr<LibUSB::Device>,std::allocator<std::tr1::shared_ptr<LibUSB::Device> > > >
PUBLIC	?end@?$list@V?$shared_ptr@VDevice@LibUSB@@@tr1@std@@V?$allocator@V?$shared_ptr@VDevice@LibUSB@@@tr1@std@@@3@@std@@QAE?AV?$_List_iterator@V?$_List_val@V?$shared_ptr@VDevice@LibUSB@@@tr1@std@@V?$allocator@V?$shared_ptr@VDevice@LibUSB@@@tr1@std@@@3@@std@@@2@XZ ; std::list<std::tr1::shared_ptr<LibUSB::Device>,std::allocator<std::tr1::shared_ptr<LibUSB::Device> > >::end
;	COMDAT xdata$x
xdata$x	SEGMENT
__unwindtable$?push_back@?$list@V?$shared_ptr@VDevice@LibUSB@@@tr1@std@@V?$allocator@V?$shared_ptr@VDevice@LibUSB@@@tr1@std@@@3@@std@@QAEXABV?$shared_ptr@VDevice@LibUSB@@@tr1@2@@Z DD 0ffffffffH
	DD	FLAT:__unwindfunclet$?push_back@?$list@V?$shared_ptr@VDevice@LibUSB@@@tr1@std@@V?$allocator@V?$shared_ptr@VDevice@LibUSB@@@tr1@std@@@3@@std@@QAEXABV?$shared_ptr@VDevice@LibUSB@@@tr1@2@@Z$0
__ehfuncinfo$?push_back@?$list@V?$shared_ptr@VDevice@LibUSB@@@tr1@std@@V?$allocator@V?$shared_ptr@VDevice@LibUSB@@@tr1@std@@@3@@std@@QAEXABV?$shared_ptr@VDevice@LibUSB@@@tr1@2@@Z DD 019930522H
	DD	01H
	DD	FLAT:__unwindtable$?push_back@?$list@V?$shared_ptr@VDevice@LibUSB@@@tr1@std@@V?$allocator@V?$shared_ptr@VDevice@LibUSB@@@tr1@std@@@3@@std@@QAEXABV?$shared_ptr@VDevice@LibUSB@@@tr1@2@@Z
	DD	2 DUP(00H)
	DD	2 DUP(00H)
	DD	00H
	DD	01H
; Function compile flags: /Odtp /RTCsu /ZI
xdata$x	ENDS
;	COMDAT ?push_back@?$list@V?$shared_ptr@VDevice@LibUSB@@@tr1@std@@V?$allocator@V?$shared_ptr@VDevice@LibUSB@@@tr1@std@@@3@@std@@QAEXABV?$shared_ptr@VDevice@LibUSB@@@tr1@2@@Z
_TEXT	SEGMENT
tv93 = -260						; size = 4
tv90 = -256						; size = 4
tv94 = -252						; size = 4
$T130665 = -244						; size = 4
$T130666 = -232						; size = 12
_this$ = -20						; size = 4
__$EHRec$ = -12						; size = 12
__Val$ = 8						; size = 4
?push_back@?$list@V?$shared_ptr@VDevice@LibUSB@@@tr1@std@@V?$allocator@V?$shared_ptr@VDevice@LibUSB@@@tr1@std@@@3@@std@@QAEXABV?$shared_ptr@VDevice@LibUSB@@@tr1@2@@Z PROC ; std::list<std::tr1::shared_ptr<LibUSB::Device>,std::allocator<std::tr1::shared_ptr<LibUSB::Device> > >::push_back, COMDAT
; _this$ = ecx
; Line 926
	push	ebp
	mov	ebp, esp
	push	-1
	push	__ehhandler$?push_back@?$list@V?$shared_ptr@VDevice@LibUSB@@@tr1@std@@V?$allocator@V?$shared_ptr@VDevice@LibUSB@@@tr1@std@@@3@@std@@QAEXABV?$shared_ptr@VDevice@LibUSB@@@tr1@2@@Z
	mov	eax, DWORD PTR fs:0
	push	eax
	sub	esp, 248				; 000000f8H
	push	ebx
	push	esi
	push	edi
	push	ecx
	lea	edi, DWORD PTR [ebp-260]
	mov	ecx, 62					; 0000003eH
	mov	eax, -858993460				; ccccccccH
	rep stosd
	pop	ecx
	mov	eax, DWORD PTR ___security_cookie
	xor	eax, ebp
	push	eax
	lea	eax, DWORD PTR __$EHRec$[ebp]
	mov	DWORD PTR fs:0, eax
	mov	DWORD PTR _this$[ebp], ecx
; Line 927
	mov	eax, DWORD PTR __Val$[ebp]
	push	eax
	lea	ecx, DWORD PTR $T130666[ebp]
	push	ecx
	mov	ecx, DWORD PTR _this$[ebp]
	call	?end@?$list@V?$shared_ptr@VDevice@LibUSB@@@tr1@std@@V?$allocator@V?$shared_ptr@VDevice@LibUSB@@@tr1@std@@@3@@std@@QAE?AV?$_List_iterator@V?$_List_val@V?$shared_ptr@VDevice@LibUSB@@@tr1@std@@V?$allocator@V?$shared_ptr@VDevice@LibUSB@@@tr1@std@@@3@@std@@@2@XZ ; std::list<std::tr1::shared_ptr<LibUSB::Device>,std::allocator<std::tr1::shared_ptr<LibUSB::Device> > >::end
	mov	DWORD PTR tv94[ebp], eax
	mov	edx, DWORD PTR tv94[ebp]
	mov	DWORD PTR tv90[ebp], edx
	mov	DWORD PTR __$EHRec$[ebp+8], 0
	sub	esp, 12					; 0000000cH
	mov	ecx, esp
	mov	DWORD PTR $T130665[ebp], esp
	mov	eax, DWORD PTR tv90[ebp]
	push	eax
	call	??0?$_List_const_iterator@V?$_List_val@V?$shared_ptr@VDevice@LibUSB@@@tr1@std@@V?$allocator@V?$shared_ptr@VDevice@LibUSB@@@tr1@std@@@3@@std@@@std@@QAE@ABV01@@Z
	mov	DWORD PTR tv93[ebp], eax
	mov	ecx, DWORD PTR _this$[ebp]
	call	?_Insert@?$list@V?$shared_ptr@VDevice@LibUSB@@@tr1@std@@V?$allocator@V?$shared_ptr@VDevice@LibUSB@@@tr1@std@@@3@@std@@QAEXV?$_List_const_iterator@V?$_List_val@V?$shared_ptr@VDevice@LibUSB@@@tr1@std@@V?$allocator@V?$shared_ptr@VDevice@LibUSB@@@tr1@std@@@3@@std@@@2@ABV?$shared_ptr@VDevice@LibUSB@@@tr1@2@@Z ; std::list<std::tr1::shared_ptr<LibUSB::Device>,std::allocator<std::tr1::shared_ptr<LibUSB::Device> > >::_Insert
	mov	DWORD PTR __$EHRec$[ebp+8], -1
	lea	ecx, DWORD PTR $T130666[ebp]
	call	??1?$_List_iterator@V?$_List_val@V?$shared_ptr@VDevice@LibUSB@@@tr1@std@@V?$allocator@V?$shared_ptr@VDevice@LibUSB@@@tr1@std@@@3@@std@@@std@@QAE@XZ
; Line 928
	mov	ecx, DWORD PTR __$EHRec$[ebp]
	mov	DWORD PTR fs:0, ecx
	pop	ecx
	pop	edi
	pop	esi
	pop	ebx
	add	esp, 260				; 00000104H
	cmp	ebp, esp
	call	__RTC_CheckEsp
	mov	esp, ebp
	pop	ebp
	ret	4
_TEXT	ENDS
;	COMDAT text$x
text$x	SEGMENT
__unwindfunclet$?push_back@?$list@V?$shared_ptr@VDevice@LibUSB@@@tr1@std@@V?$allocator@V?$shared_ptr@VDevice@LibUSB@@@tr1@std@@@3@@std@@QAEXABV?$shared_ptr@VDevice@LibUSB@@@tr1@2@@Z$0:
	lea	ecx, DWORD PTR $T130666[ebp]
	jmp	??1?$_List_iterator@V?$_List_val@V?$shared_ptr@VDevice@LibUSB@@@tr1@std@@V?$allocator@V?$shared_ptr@VDevice@LibUSB@@@tr1@std@@@3@@std@@@std@@QAE@XZ
__ehhandler$?push_back@?$list@V?$shared_ptr@VDevice@LibUSB@@@tr1@std@@V?$allocator@V?$shared_ptr@VDevice@LibUSB@@@tr1@std@@@3@@std@@QAEXABV?$shared_ptr@VDevice@LibUSB@@@tr1@2@@Z:
	mov	edx, DWORD PTR [esp+8]
	lea	eax, DWORD PTR [edx+12]
	mov	ecx, DWORD PTR [edx-264]
	xor	ecx, eax
	call	@__security_check_cookie@4
	mov	eax, OFFSET __ehfuncinfo$?push_back@?$list@V?$shared_ptr@VDevice@LibUSB@@@tr1@std@@V?$allocator@V?$shared_ptr@VDevice@LibUSB@@@tr1@std@@@3@@std@@QAEXABV?$shared_ptr@VDevice@LibUSB@@@tr1@2@@Z
	jmp	___CxxFrameHandler3
text$x	ENDS
?push_back@?$list@V?$shared_ptr@VDevice@LibUSB@@@tr1@std@@V?$allocator@V?$shared_ptr@VDevice@LibUSB@@@tr1@std@@@3@@std@@QAEXABV?$shared_ptr@VDevice@LibUSB@@@tr1@2@@Z ENDP ; std::list<std::tr1::shared_ptr<LibUSB::Device>,std::allocator<std::tr1::shared_ptr<LibUSB::Device> > >::push_back
PUBLIC	??0?$_Ptr_base@VDevice@LibUSB@@@tr1@std@@QAE@XZ	; std::tr1::_Ptr_base<LibUSB::Device>::_Ptr_base<LibUSB::Device>
; Function compile flags: /Odtp /RTCsu /ZI
;	COMDAT ??0?$shared_ptr@VDevice@LibUSB@@@tr1@std@@QAE@XZ
_TEXT	SEGMENT
_this$ = -8						; size = 4
??0?$shared_ptr@VDevice@LibUSB@@@tr1@std@@QAE@XZ PROC	; std::tr1::shared_ptr<LibUSB::Device>::shared_ptr<LibUSB::Device>, COMDAT
; _this$ = ecx
; File c:\program files (x86)\microsoft visual studio 10.0\vc\include\memory
; Line 1424
	push	ebp
	mov	ebp, esp
	sub	esp, 204				; 000000ccH
	push	ebx
	push	esi
	push	edi
	push	ecx
	lea	edi, DWORD PTR [ebp-204]
	mov	ecx, 51					; 00000033H
	mov	eax, -858993460				; ccccccccH
	rep stosd
	pop	ecx
	mov	DWORD PTR _this$[ebp], ecx
	mov	ecx, DWORD PTR _this$[ebp]
	call	??0?$_Ptr_base@VDevice@LibUSB@@@tr1@std@@QAE@XZ ; std::tr1::_Ptr_base<LibUSB::Device>::_Ptr_base<LibUSB::Device>
; Line 1426
	mov	eax, DWORD PTR _this$[ebp]
	pop	edi
	pop	esi
	pop	ebx
	add	esp, 204				; 000000ccH
	cmp	ebp, esp
	call	__RTC_CheckEsp
	mov	esp, ebp
	pop	ebp
	ret	0
??0?$shared_ptr@VDevice@LibUSB@@@tr1@std@@QAE@XZ ENDP	; std::tr1::shared_ptr<LibUSB::Device>::shared_ptr<LibUSB::Device>
_TEXT	ENDS
PUBLIC	?swap@?$shared_ptr@VDevice@LibUSB@@@tr1@std@@QAEXAAV123@@Z ; std::tr1::shared_ptr<LibUSB::Device>::swap
PUBLIC	??0?$shared_ptr@VDevice@LibUSB@@@tr1@std@@QAE@$$QAV012@@Z ; std::tr1::shared_ptr<LibUSB::Device>::shared_ptr<LibUSB::Device>
PUBLIC	??$move@AAV?$shared_ptr@VDevice@LibUSB@@@tr1@std@@@std@@YA$$QAV?$shared_ptr@VDevice@LibUSB@@@tr1@0@AAV120@@Z ; std::move<std::tr1::shared_ptr<LibUSB::Device> &>
;	COMDAT xdata$x
xdata$x	SEGMENT
__unwindtable$??4?$shared_ptr@VDevice@LibUSB@@@tr1@std@@QAEAAV012@$$QAV012@@Z DD 0ffffffffH
	DD	FLAT:__unwindfunclet$??4?$shared_ptr@VDevice@LibUSB@@@tr1@std@@QAEAAV012@$$QAV012@@Z$0
__ehfuncinfo$??4?$shared_ptr@VDevice@LibUSB@@@tr1@std@@QAEAAV012@$$QAV012@@Z DD 019930522H
	DD	01H
	DD	FLAT:__unwindtable$??4?$shared_ptr@VDevice@LibUSB@@@tr1@std@@QAEAAV012@$$QAV012@@Z
	DD	2 DUP(00H)
	DD	2 DUP(00H)
	DD	00H
	DD	01H
; Function compile flags: /Odtp /RTCsu /ZI
xdata$x	ENDS
;	COMDAT ??4?$shared_ptr@VDevice@LibUSB@@@tr1@std@@QAEAAV012@$$QAV012@@Z
_TEXT	SEGMENT
tv74 = -240						; size = 4
tv75 = -236						; size = 4
$T130679 = -228						; size = 8
_this$ = -20						; size = 4
__$EHRec$ = -12						; size = 12
__Right$ = 8						; size = 4
??4?$shared_ptr@VDevice@LibUSB@@@tr1@std@@QAEAAV012@$$QAV012@@Z PROC ; std::tr1::shared_ptr<LibUSB::Device>::operator=, COMDAT
; _this$ = ecx
; Line 1557
	push	ebp
	mov	ebp, esp
	push	-1
	push	__ehhandler$??4?$shared_ptr@VDevice@LibUSB@@@tr1@std@@QAEAAV012@$$QAV012@@Z
	mov	eax, DWORD PTR fs:0
	push	eax
	sub	esp, 228				; 000000e4H
	push	ebx
	push	esi
	push	edi
	push	ecx
	lea	edi, DWORD PTR [ebp-240]
	mov	ecx, 57					; 00000039H
	mov	eax, -858993460				; ccccccccH
	rep stosd
	pop	ecx
	mov	eax, DWORD PTR ___security_cookie
	xor	eax, ebp
	push	eax
	lea	eax, DWORD PTR __$EHRec$[ebp]
	mov	DWORD PTR fs:0, eax
	mov	DWORD PTR _this$[ebp], ecx
; Line 1558
	mov	eax, DWORD PTR _this$[ebp]
	push	eax
	mov	ecx, DWORD PTR __Right$[ebp]
	push	ecx
	call	??$move@AAV?$shared_ptr@VDevice@LibUSB@@@tr1@std@@@std@@YA$$QAV?$shared_ptr@VDevice@LibUSB@@@tr1@0@AAV120@@Z ; std::move<std::tr1::shared_ptr<LibUSB::Device> &>
	add	esp, 4
	push	eax
	lea	ecx, DWORD PTR $T130679[ebp]
	call	??0?$shared_ptr@VDevice@LibUSB@@@tr1@std@@QAE@$$QAV012@@Z ; std::tr1::shared_ptr<LibUSB::Device>::shared_ptr<LibUSB::Device>
	mov	DWORD PTR tv75[ebp], eax
	mov	edx, DWORD PTR tv75[ebp]
	mov	DWORD PTR tv74[ebp], edx
	mov	DWORD PTR __$EHRec$[ebp+8], 0
	mov	ecx, DWORD PTR tv74[ebp]
	call	?swap@?$shared_ptr@VDevice@LibUSB@@@tr1@std@@QAEXAAV123@@Z ; std::tr1::shared_ptr<LibUSB::Device>::swap
	mov	DWORD PTR __$EHRec$[ebp+8], -1
	lea	ecx, DWORD PTR $T130679[ebp]
	call	??1?$shared_ptr@VDevice@LibUSB@@@tr1@std@@QAE@XZ ; std::tr1::shared_ptr<LibUSB::Device>::~shared_ptr<LibUSB::Device>
; Line 1559
	mov	eax, DWORD PTR _this$[ebp]
; Line 1560
	mov	ecx, DWORD PTR __$EHRec$[ebp]
	mov	DWORD PTR fs:0, ecx
	pop	ecx
	pop	edi
	pop	esi
	pop	ebx
	add	esp, 240				; 000000f0H
	cmp	ebp, esp
	call	__RTC_CheckEsp
	mov	esp, ebp
	pop	ebp
	ret	4
_TEXT	ENDS
;	COMDAT text$x
text$x	SEGMENT
__unwindfunclet$??4?$shared_ptr@VDevice@LibUSB@@@tr1@std@@QAEAAV012@$$QAV012@@Z$0:
	lea	ecx, DWORD PTR $T130679[ebp]
	jmp	??1?$shared_ptr@VDevice@LibUSB@@@tr1@std@@QAE@XZ ; std::tr1::shared_ptr<LibUSB::Device>::~shared_ptr<LibUSB::Device>
__ehhandler$??4?$shared_ptr@VDevice@LibUSB@@@tr1@std@@QAEAAV012@$$QAV012@@Z:
	mov	edx, DWORD PTR [esp+8]
	lea	eax, DWORD PTR [edx+12]
	mov	ecx, DWORD PTR [edx-244]
	xor	ecx, eax
	call	@__security_check_cookie@4
	mov	eax, OFFSET __ehfuncinfo$??4?$shared_ptr@VDevice@LibUSB@@@tr1@std@@QAEAAV012@$$QAV012@@Z
	jmp	___CxxFrameHandler3
text$x	ENDS
??4?$shared_ptr@VDevice@LibUSB@@@tr1@std@@QAEAAV012@$$QAV012@@Z ENDP ; std::tr1::shared_ptr<LibUSB::Device>::operator=
PUBLIC	?_Decref@?$_Ptr_base@VDevice@LibUSB@@@tr1@std@@QAEXXZ ; std::tr1::_Ptr_base<LibUSB::Device>::_Decref
; Function compile flags: /Odtp /RTCsu /ZI
;	COMDAT ??1?$shared_ptr@VDevice@LibUSB@@@tr1@std@@QAE@XZ
_TEXT	SEGMENT
_this$ = -8						; size = 4
??1?$shared_ptr@VDevice@LibUSB@@@tr1@std@@QAE@XZ PROC	; std::tr1::shared_ptr<LibUSB::Device>::~shared_ptr<LibUSB::Device>, COMDAT
; _this$ = ecx
; Line 1575
	push	ebp
	mov	ebp, esp
	sub	esp, 204				; 000000ccH
	push	ebx
	push	esi
	push	edi
	push	ecx
	lea	edi, DWORD PTR [ebp-204]
	mov	ecx, 51					; 00000033H
	mov	eax, -858993460				; ccccccccH
	rep stosd
	pop	ecx
	mov	DWORD PTR _this$[ebp], ecx
; Line 1576
	mov	ecx, DWORD PTR _this$[ebp]
	call	?_Decref@?$_Ptr_base@VDevice@LibUSB@@@tr1@std@@QAEXXZ ; std::tr1::_Ptr_base<LibUSB::Device>::_Decref
; Line 1577
	pop	edi
	pop	esi
	pop	ebx
	add	esp, 204				; 000000ccH
	cmp	ebp, esp
	call	__RTC_CheckEsp
	mov	esp, ebp
	pop	ebp
	ret	0
??1?$shared_ptr@VDevice@LibUSB@@@tr1@std@@QAE@XZ ENDP	; std::tr1::shared_ptr<LibUSB::Device>::~shared_ptr<LibUSB::Device>
_TEXT	ENDS
PUBLIC	?_Get@?$_Ptr_base@VDevice@LibUSB@@@tr1@std@@QBEPAVDevice@LibUSB@@XZ ; std::tr1::_Ptr_base<LibUSB::Device>::_Get
; Function compile flags: /Odtp /RTCsu /ZI
;	COMDAT ??C?$shared_ptr@VDevice@LibUSB@@@tr1@std@@QBEPAVDevice@LibUSB@@XZ
_TEXT	SEGMENT
_this$ = -8						; size = 4
??C?$shared_ptr@VDevice@LibUSB@@@tr1@std@@QBEPAVDevice@LibUSB@@XZ PROC ; std::tr1::shared_ptr<LibUSB::Device>::operator->, COMDAT
; _this$ = ecx
; Line 1643
	push	ebp
	mov	ebp, esp
	sub	esp, 204				; 000000ccH
	push	ebx
	push	esi
	push	edi
	push	ecx
	lea	edi, DWORD PTR [ebp-204]
	mov	ecx, 51					; 00000033H
	mov	eax, -858993460				; ccccccccH
	rep stosd
	pop	ecx
	mov	DWORD PTR _this$[ebp], ecx
; Line 1644
	mov	ecx, DWORD PTR _this$[ebp]
	call	?_Get@?$_Ptr_base@VDevice@LibUSB@@@tr1@std@@QBEPAVDevice@LibUSB@@XZ ; std::tr1::_Ptr_base<LibUSB::Device>::_Get
; Line 1645
	pop	edi
	pop	esi
	pop	ebx
	add	esp, 204				; 000000ccH
	cmp	ebp, esp
	call	__RTC_CheckEsp
	mov	esp, ebp
	pop	ebp
	ret	0
??C?$shared_ptr@VDevice@LibUSB@@@tr1@std@@QBEPAVDevice@LibUSB@@XZ ENDP ; std::tr1::shared_ptr<LibUSB::Device>::operator->
_TEXT	ENDS
PUBLIC	??0?$_List_unchecked_const_iterator@V?$_List_val@V?$shared_ptr@VDevice@LibUSB@@@tr1@std@@V?$allocator@V?$shared_ptr@VDevice@LibUSB@@@tr1@std@@@3@@std@@U_Iterator_base12@2@@std@@QAE@ABV01@@Z ; std::_List_unchecked_const_iterator<std::_List_val<std::tr1::shared_ptr<LibUSB::Device>,std::allocator<std::tr1::shared_ptr<LibUSB::Device> > >,std::_Iterator_base12>::_List_unchecked_const_iterator<std::_List_val<std::tr1::shared_ptr<LibUSB::Device>,std::allocator<std::tr1::shared_ptr<LibUSB::Device> > >,std::_Iterator_base12>
; Function compile flags: /Odtp /RTCsu /ZI
;	COMDAT ??0?$_List_const_iterator@V?$_List_val@V?$shared_ptr@VDevice@LibUSB@@@tr1@std@@V?$allocator@V?$shared_ptr@VDevice@LibUSB@@@tr1@std@@@3@@std@@@std@@QAE@ABV01@@Z
_TEXT	SEGMENT
_this$ = -8						; size = 4
___that$ = 8						; size = 4
??0?$_List_const_iterator@V?$_List_val@V?$shared_ptr@VDevice@LibUSB@@@tr1@std@@V?$allocator@V?$shared_ptr@VDevice@LibUSB@@@tr1@std@@@3@@std@@@std@@QAE@ABV01@@Z PROC ; std::_List_const_iterator<std::_List_val<std::tr1::shared_ptr<LibUSB::Device>,std::allocator<std::tr1::shared_ptr<LibUSB::Device> > > >::_List_const_iterator<std::_List_val<std::tr1::shared_ptr<LibUSB::Device>,std::allocator<std::tr1::shared_ptr<LibUSB::Device> > > >, COMDAT
; _this$ = ecx
	push	ebp
	mov	ebp, esp
	sub	esp, 204				; 000000ccH
	push	ebx
	push	esi
	push	edi
	push	ecx
	lea	edi, DWORD PTR [ebp-204]
	mov	ecx, 51					; 00000033H
	mov	eax, -858993460				; ccccccccH
	rep stosd
	pop	ecx
	mov	DWORD PTR _this$[ebp], ecx
	mov	eax, DWORD PTR ___that$[ebp]
	push	eax
	mov	ecx, DWORD PTR _this$[ebp]
	call	??0?$_List_unchecked_const_iterator@V?$_List_val@V?$shared_ptr@VDevice@LibUSB@@@tr1@std@@V?$allocator@V?$shared_ptr@VDevice@LibUSB@@@tr1@std@@@3@@std@@U_Iterator_base12@2@@std@@QAE@ABV01@@Z
	mov	eax, DWORD PTR _this$[ebp]
	pop	edi
	pop	esi
	pop	ebx
	add	esp, 204				; 000000ccH
	cmp	ebp, esp
	call	__RTC_CheckEsp
	mov	esp, ebp
	pop	ebp
	ret	4
??0?$_List_const_iterator@V?$_List_val@V?$shared_ptr@VDevice@LibUSB@@@tr1@std@@V?$allocator@V?$shared_ptr@VDevice@LibUSB@@@tr1@std@@@3@@std@@@std@@QAE@ABV01@@Z ENDP ; std::_List_const_iterator<std::_List_val<std::tr1::shared_ptr<LibUSB::Device>,std::allocator<std::tr1::shared_ptr<LibUSB::Device> > > >::_List_const_iterator<std::_List_val<std::tr1::shared_ptr<LibUSB::Device>,std::allocator<std::tr1::shared_ptr<LibUSB::Device> > > >
_TEXT	ENDS
PUBLIC	??0?$_Iterator012@Ubidirectional_iterator_tag@std@@V?$shared_ptr@VDevice@LibUSB@@@tr1@2@HPBV342@ABV342@U_Iterator_base12@2@@std@@QAE@ABU01@@Z ; std::_Iterator012<std::bidirectional_iterator_tag,std::tr1::shared_ptr<LibUSB::Device>,int,std::tr1::shared_ptr<LibUSB::Device> const *,std::tr1::shared_ptr<LibUSB::Device> const &,std::_Iterator_base12>::_Iterator012<std::bidirectional_iterator_tag,std::tr1::shared_ptr<LibUSB::Device>,int,std::tr1::shared_ptr<LibUSB::Device> const *,std::tr1::shared_ptr<LibUSB::Device> const &,std::_Iterator_base12>
; Function compile flags: /Odtp /RTCsu /ZI
;	COMDAT ??0?$_List_unchecked_const_iterator@V?$_List_val@V?$shared_ptr@VDevice@LibUSB@@@tr1@std@@V?$allocator@V?$shared_ptr@VDevice@LibUSB@@@tr1@std@@@3@@std@@U_Iterator_base12@2@@std@@QAE@ABV01@@Z
_TEXT	SEGMENT
_this$ = -8						; size = 4
___that$ = 8						; size = 4
??0?$_List_unchecked_const_iterator@V?$_List_val@V?$shared_ptr@VDevice@LibUSB@@@tr1@std@@V?$allocator@V?$shared_ptr@VDevice@LibUSB@@@tr1@std@@@3@@std@@U_Iterator_base12@2@@std@@QAE@ABV01@@Z PROC ; std::_List_unchecked_const_iterator<std::_List_val<std::tr1::shared_ptr<LibUSB::Device>,std::allocator<std::tr1::shared_ptr<LibUSB::Device> > >,std::_Iterator_base12>::_List_unchecked_const_iterator<std::_List_val<std::tr1::shared_ptr<LibUSB::Device>,std::allocator<std::tr1::shared_ptr<LibUSB::Device> > >,std::_Iterator_base12>, COMDAT
; _this$ = ecx
	push	ebp
	mov	ebp, esp
	sub	esp, 204				; 000000ccH
	push	ebx
	push	esi
	push	edi
	push	ecx
	lea	edi, DWORD PTR [ebp-204]
	mov	ecx, 51					; 00000033H
	mov	eax, -858993460				; ccccccccH
	rep stosd
	pop	ecx
	mov	DWORD PTR _this$[ebp], ecx
	mov	eax, DWORD PTR ___that$[ebp]
	push	eax
	mov	ecx, DWORD PTR _this$[ebp]
	call	??0?$_Iterator012@Ubidirectional_iterator_tag@std@@V?$shared_ptr@VDevice@LibUSB@@@tr1@2@HPBV342@ABV342@U_Iterator_base12@2@@std@@QAE@ABU01@@Z
	mov	eax, DWORD PTR _this$[ebp]
	mov	ecx, DWORD PTR ___that$[ebp]
	mov	edx, DWORD PTR [ecx+8]
	mov	DWORD PTR [eax+8], edx
	mov	eax, DWORD PTR _this$[ebp]
	pop	edi
	pop	esi
	pop	ebx
	add	esp, 204				; 000000ccH
	cmp	ebp, esp
	call	__RTC_CheckEsp
	mov	esp, ebp
	pop	ebp
	ret	4
??0?$_List_unchecked_const_iterator@V?$_List_val@V?$shared_ptr@VDevice@LibUSB@@@tr1@std@@V?$allocator@V?$shared_ptr@VDevice@LibUSB@@@tr1@std@@@3@@std@@U_Iterator_base12@2@@std@@QAE@ABV01@@Z ENDP ; std::_List_unchecked_const_iterator<std::_List_val<std::tr1::shared_ptr<LibUSB::Device>,std::allocator<std::tr1::shared_ptr<LibUSB::Device> > >,std::_Iterator_base12>::_List_unchecked_const_iterator<std::_List_val<std::tr1::shared_ptr<LibUSB::Device>,std::allocator<std::tr1::shared_ptr<LibUSB::Device> > >,std::_Iterator_base12>
_TEXT	ENDS
PUBLIC	??0_Iterator_base12@std@@QAE@ABU01@@Z		; std::_Iterator_base12::_Iterator_base12
; Function compile flags: /Odtp /RTCsu /ZI
;	COMDAT ??0?$_Iterator012@Ubidirectional_iterator_tag@std@@V?$shared_ptr@VDevice@LibUSB@@@tr1@2@HPBV342@ABV342@U_Iterator_base12@2@@std@@QAE@ABU01@@Z
_TEXT	SEGMENT
_this$ = -8						; size = 4
___that$ = 8						; size = 4
??0?$_Iterator012@Ubidirectional_iterator_tag@std@@V?$shared_ptr@VDevice@LibUSB@@@tr1@2@HPBV342@ABV342@U_Iterator_base12@2@@std@@QAE@ABU01@@Z PROC ; std::_Iterator012<std::bidirectional_iterator_tag,std::tr1::shared_ptr<LibUSB::Device>,int,std::tr1::shared_ptr<LibUSB::Device> const *,std::tr1::shared_ptr<LibUSB::Device> const &,std::_Iterator_base12>::_Iterator012<std::bidirectional_iterator_tag,std::tr1::shared_ptr<LibUSB::Device>,int,std::tr1::shared_ptr<LibUSB::Device> const *,std::tr1::shared_ptr<LibUSB::Device> const &,std::_Iterator_base12>, COMDAT
; _this$ = ecx
	push	ebp
	mov	ebp, esp
	sub	esp, 204				; 000000ccH
	push	ebx
	push	esi
	push	edi
	push	ecx
	lea	edi, DWORD PTR [ebp-204]
	mov	ecx, 51					; 00000033H
	mov	eax, -858993460				; ccccccccH
	rep stosd
	pop	ecx
	mov	DWORD PTR _this$[ebp], ecx
	mov	eax, DWORD PTR ___that$[ebp]
	push	eax
	mov	ecx, DWORD PTR _this$[ebp]
	call	??0_Iterator_base12@std@@QAE@ABU01@@Z	; std::_Iterator_base12::_Iterator_base12
	mov	eax, DWORD PTR _this$[ebp]
	pop	edi
	pop	esi
	pop	ebx
	add	esp, 204				; 000000ccH
	cmp	ebp, esp
	call	__RTC_CheckEsp
	mov	esp, ebp
	pop	ebp
	ret	4
??0?$_Iterator012@Ubidirectional_iterator_tag@std@@V?$shared_ptr@VDevice@LibUSB@@@tr1@2@HPBV342@ABV342@U_Iterator_base12@2@@std@@QAE@ABU01@@Z ENDP ; std::_Iterator012<std::bidirectional_iterator_tag,std::tr1::shared_ptr<LibUSB::Device>,int,std::tr1::shared_ptr<LibUSB::Device> const *,std::tr1::shared_ptr<LibUSB::Device> const &,std::_Iterator_base12>::_Iterator012<std::bidirectional_iterator_tag,std::tr1::shared_ptr<LibUSB::Device>,int,std::tr1::shared_ptr<LibUSB::Device> const *,std::tr1::shared_ptr<LibUSB::Device> const &,std::_Iterator_base12>
_TEXT	ENDS
PUBLIC	??4_Iterator_base12@std@@QAEAAU01@ABU01@@Z	; std::_Iterator_base12::operator=
; Function compile flags: /Odtp /RTCsu /ZI
;	COMDAT ??0_Iterator_base12@std@@QAE@ABU01@@Z
_TEXT	SEGMENT
_this$ = -8						; size = 4
__Right$ = 8						; size = 4
??0_Iterator_base12@std@@QAE@ABU01@@Z PROC		; std::_Iterator_base12::_Iterator_base12, COMDAT
; _this$ = ecx
; File c:\program files (x86)\microsoft visual studio 10.0\vc\include\xutility
; Line 116
	push	ebp
	mov	ebp, esp
	sub	esp, 204				; 000000ccH
	push	ebx
	push	esi
	push	edi
	push	ecx
	lea	edi, DWORD PTR [ebp-204]
	mov	ecx, 51					; 00000033H
	mov	eax, -858993460				; ccccccccH
	rep stosd
	pop	ecx
	mov	DWORD PTR _this$[ebp], ecx
	mov	eax, DWORD PTR _this$[ebp]
	mov	DWORD PTR [eax], 0
	mov	eax, DWORD PTR _this$[ebp]
	mov	DWORD PTR [eax+4], 0
; Line 117
	mov	eax, DWORD PTR __Right$[ebp]
	push	eax
	mov	ecx, DWORD PTR _this$[ebp]
	call	??4_Iterator_base12@std@@QAEAAU01@ABU01@@Z ; std::_Iterator_base12::operator=
; Line 118
	mov	eax, DWORD PTR _this$[ebp]
	pop	edi
	pop	esi
	pop	ebx
	add	esp, 204				; 000000ccH
	cmp	ebp, esp
	call	__RTC_CheckEsp
	mov	esp, ebp
	pop	ebp
	ret	4
??0_Iterator_base12@std@@QAE@ABU01@@Z ENDP		; std::_Iterator_base12::_Iterator_base12
_TEXT	ENDS
PUBLIC	?_Adopt@_Iterator_base12@std@@QAEXPBU_Container_base12@2@@Z ; std::_Iterator_base12::_Adopt
; Function compile flags: /Odtp /RTCsu /ZI
;	COMDAT ??4_Iterator_base12@std@@QAEAAU01@ABU01@@Z
_TEXT	SEGMENT
_this$ = -8						; size = 4
__Right$ = 8						; size = 4
??4_Iterator_base12@std@@QAEAAU01@ABU01@@Z PROC		; std::_Iterator_base12::operator=, COMDAT
; _this$ = ecx
; Line 121
	push	ebp
	mov	ebp, esp
	sub	esp, 204				; 000000ccH
	push	ebx
	push	esi
	push	edi
	push	ecx
	lea	edi, DWORD PTR [ebp-204]
	mov	ecx, 51					; 00000033H
	mov	eax, -858993460				; ccccccccH
	rep stosd
	pop	ecx
	mov	DWORD PTR _this$[ebp], ecx
; Line 122
	mov	eax, DWORD PTR _this$[ebp]
	mov	ecx, DWORD PTR __Right$[ebp]
	mov	edx, DWORD PTR [eax]
	cmp	edx, DWORD PTR [ecx]
	je	SHORT $LN1@operator
; Line 123
	mov	eax, DWORD PTR __Right$[ebp]
	mov	ecx, DWORD PTR [eax]
	mov	edx, DWORD PTR [ecx]
	push	edx
	mov	ecx, DWORD PTR _this$[ebp]
	call	?_Adopt@_Iterator_base12@std@@QAEXPBU_Container_base12@2@@Z ; std::_Iterator_base12::_Adopt
$LN1@operator:
; Line 124
	mov	eax, DWORD PTR _this$[ebp]
; Line 125
	pop	edi
	pop	esi
	pop	ebx
	add	esp, 204				; 000000ccH
	cmp	ebp, esp
	call	__RTC_CheckEsp
	mov	esp, ebp
	pop	ebp
	ret	4
??4_Iterator_base12@std@@QAEAAU01@ABU01@@Z ENDP		; std::_Iterator_base12::operator=
_TEXT	ENDS
;	COMDAT xdata$x
xdata$x	SEGMENT
__unwindtable$?_Adopt@_Iterator_base12@std@@QAEXPBU_Container_base12@2@@Z DD 0ffffffffH
	DD	FLAT:__unwindfunclet$?_Adopt@_Iterator_base12@std@@QAEXPBU_Container_base12@2@@Z$0
__ehfuncinfo$?_Adopt@_Iterator_base12@std@@QAEXPBU_Container_base12@2@@Z DD 019930522H
	DD	01H
	DD	FLAT:__unwindtable$?_Adopt@_Iterator_base12@std@@QAEXPBU_Container_base12@2@@Z
	DD	2 DUP(00H)
	DD	2 DUP(00H)
	DD	00H
	DD	01H
; Function compile flags: /Odtp /RTCsu /ZI
xdata$x	ENDS
;	COMDAT ?_Adopt@_Iterator_base12@std@@QAEXPBU_Container_base12@2@@Z
_TEXT	SEGMENT
__Lock$11546 = -44					; size = 4
__Parent_proxy$11544 = -32				; size = 4
_this$ = -20						; size = 4
__$EHRec$ = -12						; size = 12
__Parent$ = 8						; size = 4
?_Adopt@_Iterator_base12@std@@QAEXPBU_Container_base12@2@@Z PROC ; std::_Iterator_base12::_Adopt, COMDAT
; _this$ = ecx
; Line 136
	push	ebp
	mov	ebp, esp
	push	-1
	push	__ehhandler$?_Adopt@_Iterator_base12@std@@QAEXPBU_Container_base12@2@@Z
	mov	eax, DWORD PTR fs:0
	push	eax
	sub	esp, 228				; 000000e4H
	push	ebx
	push	esi
	push	edi
	push	ecx
	lea	edi, DWORD PTR [ebp-240]
	mov	ecx, 57					; 00000039H
	mov	eax, -858993460				; ccccccccH
	rep stosd
	pop	ecx
	mov	eax, DWORD PTR ___security_cookie
	xor	eax, ebp
	push	eax
	lea	eax, DWORD PTR __$EHRec$[ebp]
	mov	DWORD PTR fs:0, eax
	mov	DWORD PTR _this$[ebp], ecx
; Line 137
	cmp	DWORD PTR __Parent$[ebp], 0
	je	SHORT $LN3@Adopt
; Line 139
	mov	eax, DWORD PTR __Parent$[ebp]
	mov	ecx, DWORD PTR [eax]
	mov	DWORD PTR __Parent_proxy$11544[ebp], ecx
; Line 142
	mov	eax, DWORD PTR _this$[ebp]
	mov	ecx, DWORD PTR [eax]
	cmp	ecx, DWORD PTR __Parent_proxy$11544[ebp]
	je	SHORT $LN3@Adopt
; Line 144
	mov	esi, esp
	push	3
	lea	ecx, DWORD PTR __Lock$11546[ebp]
	call	DWORD PTR __imp_??0_Lockit@std@@QAE@H@Z
	cmp	esi, esp
	call	__RTC_CheckEsp
	mov	DWORD PTR __$EHRec$[ebp+8], 0
; Line 145
	mov	ecx, DWORD PTR _this$[ebp]
	call	?_Orphan_me@_Iterator_base12@std@@QAEXXZ ; std::_Iterator_base12::_Orphan_me
; Line 146
	mov	eax, DWORD PTR _this$[ebp]
	mov	ecx, DWORD PTR __Parent_proxy$11544[ebp]
	mov	edx, DWORD PTR [ecx+4]
	mov	DWORD PTR [eax+4], edx
; Line 147
	mov	eax, DWORD PTR __Parent_proxy$11544[ebp]
	mov	ecx, DWORD PTR _this$[ebp]
	mov	DWORD PTR [eax+4], ecx
; Line 148
	mov	eax, DWORD PTR _this$[ebp]
	mov	ecx, DWORD PTR __Parent_proxy$11544[ebp]
	mov	DWORD PTR [eax], ecx
; Line 149
	mov	DWORD PTR __$EHRec$[ebp+8], -1
	mov	esi, esp
	lea	ecx, DWORD PTR __Lock$11546[ebp]
	call	DWORD PTR __imp_??1_Lockit@std@@QAE@XZ
	cmp	esi, esp
	call	__RTC_CheckEsp
$LN3@Adopt:
; Line 154
	push	edx
	mov	ecx, ebp
	push	eax
	lea	edx, DWORD PTR $LN9@Adopt
	call	@_RTC_CheckStackVars@8
	pop	eax
	pop	edx
	mov	ecx, DWORD PTR __$EHRec$[ebp]
	mov	DWORD PTR fs:0, ecx
	pop	ecx
	pop	edi
	pop	esi
	pop	ebx
	add	esp, 240				; 000000f0H
	cmp	ebp, esp
	call	__RTC_CheckEsp
	mov	esp, ebp
	pop	ebp
	ret	4
	npad	3
$LN9@Adopt:
	DD	1
	DD	$LN8@Adopt
$LN8@Adopt:
	DD	-44					; ffffffd4H
	DD	4
	DD	$LN6@Adopt
$LN6@Adopt:
	DB	95					; 0000005fH
	DB	76					; 0000004cH
	DB	111					; 0000006fH
	DB	99					; 00000063H
	DB	107					; 0000006bH
	DB	0
_TEXT	ENDS
;	COMDAT text$x
text$x	SEGMENT
__unwindfunclet$?_Adopt@_Iterator_base12@std@@QAEXPBU_Container_base12@2@@Z$0:
	mov	esi, esp
	lea	ecx, DWORD PTR __Lock$11546[ebp]
	call	DWORD PTR __imp_??1_Lockit@std@@QAE@XZ
	cmp	esi, esp
	jmp	__RTC_CheckEsp
__ehhandler$?_Adopt@_Iterator_base12@std@@QAEXPBU_Container_base12@2@@Z:
	mov	edx, DWORD PTR [esp+8]
	lea	eax, DWORD PTR [edx+12]
	mov	ecx, DWORD PTR [edx-244]
	xor	ecx, eax
	call	@__security_check_cookie@4
	mov	eax, OFFSET __ehfuncinfo$?_Adopt@_Iterator_base12@std@@QAEXPBU_Container_base12@2@@Z
	jmp	___CxxFrameHandler3
text$x	ENDS
?_Adopt@_Iterator_base12@std@@QAEXPBU_Container_base12@2@@Z ENDP ; std::_Iterator_base12::_Adopt
PUBLIC	?_Eos@?$basic_string@_WU?$char_traits@_W@std@@V?$allocator@_W@2@@std@@QAEXI@Z ; std::basic_string<wchar_t,std::char_traits<wchar_t>,std::allocator<wchar_t> >::_Eos
PUBLIC	?deallocate@?$allocator@_W@std@@QAEXPA_WI@Z	; std::allocator<wchar_t>::deallocate
PUBLIC	?copy@?$char_traits@_W@std@@SAPA_WPA_WPB_WI@Z	; std::char_traits<wchar_t>::copy
; Function compile flags: /Odtp /RTCsu /ZI
;	COMDAT ?_Tidy@?$basic_string@_WU?$char_traits@_W@std@@V?$allocator@_W@2@@std@@QAEX_NI@Z
_TEXT	SEGMENT
__Ptr$124891 = -20					; size = 4
_this$ = -8						; size = 4
__Built$ = 8						; size = 1
__Newsize$ = 12						; size = 4
?_Tidy@?$basic_string@_WU?$char_traits@_W@std@@V?$allocator@_W@2@@std@@QAEX_NI@Z PROC ; std::basic_string<wchar_t,std::char_traits<wchar_t>,std::allocator<wchar_t> >::_Tidy, COMDAT
; _this$ = ecx
; File c:\program files (x86)\microsoft visual studio 10.0\vc\include\xstring
; Line 1987
	push	ebp
	mov	ebp, esp
	sub	esp, 216				; 000000d8H
	push	ebx
	push	esi
	push	edi
	push	ecx
	lea	edi, DWORD PTR [ebp-216]
	mov	ecx, 54					; 00000036H
	mov	eax, -858993460				; ccccccccH
	rep stosd
	pop	ecx
	mov	DWORD PTR _this$[ebp], ecx
; Line 1988
	movzx	eax, BYTE PTR __Built$[ebp]
	test	eax, eax
	jne	SHORT $LN4@Tidy
	jmp	SHORT $LN3@Tidy
$LN4@Tidy:
; Line 1990
	mov	eax, DWORD PTR _this$[ebp]
	cmp	DWORD PTR [eax+24], 8
	jb	SHORT $LN3@Tidy
; Line 1992
	mov	eax, DWORD PTR _this$[ebp]
	mov	ecx, DWORD PTR [eax+4]
	mov	DWORD PTR __Ptr$124891[ebp], ecx
; Line 1993
	cmp	DWORD PTR __Newsize$[ebp], 0
	jbe	SHORT $LN1@Tidy
; Line 1994
	mov	eax, DWORD PTR __Newsize$[ebp]
	push	eax
	mov	ecx, DWORD PTR __Ptr$124891[ebp]
	push	ecx
	mov	edx, DWORD PTR _this$[ebp]
	add	edx, 4
	push	edx
	call	?copy@?$char_traits@_W@std@@SAPA_WPA_WPB_WI@Z ; std::char_traits<wchar_t>::copy
	add	esp, 12					; 0000000cH
$LN1@Tidy:
; Line 1995
	mov	eax, DWORD PTR _this$[ebp]
	mov	ecx, DWORD PTR [eax+24]
	add	ecx, 1
	push	ecx
	mov	edx, DWORD PTR __Ptr$124891[ebp]
	push	edx
	mov	ecx, DWORD PTR _this$[ebp]
	add	ecx, 28					; 0000001cH
	call	?deallocate@?$allocator@_W@std@@QAEXPA_WI@Z ; std::allocator<wchar_t>::deallocate
$LN3@Tidy:
; Line 1997
	mov	eax, DWORD PTR _this$[ebp]
	mov	DWORD PTR [eax+24], 7
; Line 1998
	mov	eax, DWORD PTR __Newsize$[ebp]
	push	eax
	mov	ecx, DWORD PTR _this$[ebp]
	call	?_Eos@?$basic_string@_WU?$char_traits@_W@std@@V?$allocator@_W@2@@std@@QAEXI@Z ; std::basic_string<wchar_t,std::char_traits<wchar_t>,std::allocator<wchar_t> >::_Eos
; Line 1999
	pop	edi
	pop	esi
	pop	ebx
	add	esp, 216				; 000000d8H
	cmp	ebp, esp
	call	__RTC_CheckEsp
	mov	esp, ebp
	pop	ebp
	ret	8
?_Tidy@?$basic_string@_WU?$char_traits@_W@std@@V?$allocator@_W@2@@std@@QAEX_NI@Z ENDP ; std::basic_string<wchar_t,std::char_traits<wchar_t>,std::allocator<wchar_t> >::_Tidy
_TEXT	ENDS
PUBLIC	_wmemcpy
; Function compile flags: /Odtp /RTCsu /ZI
;	COMDAT ?copy@?$char_traits@_W@std@@SAPA_WPA_WPB_WI@Z
_TEXT	SEGMENT
__First1$ = 8						; size = 4
__First2$ = 12						; size = 4
__Count$ = 16						; size = 4
?copy@?$char_traits@_W@std@@SAPA_WPA_WPB_WI@Z PROC	; std::char_traits<wchar_t>::copy, COMDAT
; File c:\program files (x86)\microsoft visual studio 10.0\vc\include\iosfwd
; Line 302
	push	ebp
	mov	ebp, esp
	sub	esp, 192				; 000000c0H
	push	ebx
	push	esi
	push	edi
	lea	edi, DWORD PTR [ebp-192]
	mov	ecx, 48					; 00000030H
	mov	eax, -858993460				; ccccccccH
	rep stosd
; Line 303
	mov	eax, DWORD PTR __Count$[ebp]
	push	eax
	mov	ecx, DWORD PTR __First2$[ebp]
	push	ecx
	mov	edx, DWORD PTR __First1$[ebp]
	push	edx
	call	_wmemcpy
	add	esp, 12					; 0000000cH
; Line 304
	pop	edi
	pop	esi
	pop	ebx
	add	esp, 192				; 000000c0H
	cmp	ebp, esp
	call	__RTC_CheckEsp
	mov	esp, ebp
	pop	ebp
	ret	0
?copy@?$char_traits@_W@std@@SAPA_WPA_WPB_WI@Z ENDP	; std::char_traits<wchar_t>::copy
_TEXT	ENDS
EXTRN	_memcpy:PROC
; Function compile flags: /Odtp /RTCsu /ZI
;	COMDAT _wmemcpy
_TEXT	SEGMENT
__S1$ = 8						; size = 4
__S2$ = 12						; size = 4
__N$ = 16						; size = 4
_wmemcpy PROC						; COMDAT
; File c:\program files (x86)\microsoft visual studio 10.0\vc\include\wchar.h
; Line 1210
	push	ebp
	mov	ebp, esp
	sub	esp, 192				; 000000c0H
	push	ebx
	push	esi
	push	edi
	lea	edi, DWORD PTR [ebp-192]
	mov	ecx, 48					; 00000030H
	mov	eax, -858993460				; ccccccccH
	rep stosd
; Line 1213
	mov	eax, DWORD PTR __N$[ebp]
	shl	eax, 1
	push	eax
	mov	ecx, DWORD PTR __S2$[ebp]
	push	ecx
	mov	edx, DWORD PTR __S1$[ebp]
	push	edx
	call	_memcpy
	add	esp, 12					; 0000000cH
; Line 1215
	pop	edi
	pop	esi
	pop	ebx
	add	esp, 192				; 000000c0H
	cmp	ebp, esp
	call	__RTC_CheckEsp
	mov	esp, ebp
	pop	ebp
	ret	0
_wmemcpy ENDP
_TEXT	ENDS
PUBLIC	?deallocate@?$allocator@U_Container_proxy@std@@@std@@QAEXPAU_Container_proxy@2@I@Z ; std::allocator<std::_Container_proxy>::deallocate
PUBLIC	??$_Dest_val@V?$allocator@U_Container_proxy@std@@@std@@U_Container_proxy@2@@std@@YAXAAV?$allocator@U_Container_proxy@std@@@0@PAU_Container_proxy@0@@Z ; std::_Dest_val<std::allocator<std::_Container_proxy>,std::_Container_proxy>
PUBLIC	??$?0_W@?$allocator@U_Container_proxy@std@@@std@@QAE@ABV?$allocator@_W@1@@Z ; std::allocator<std::_Container_proxy>::allocator<std::_Container_proxy><wchar_t>
EXTRN	__imp_??1_Container_base12@std@@QAE@XZ:PROC
EXTRN	__imp_?_Orphan_all@_Container_base12@std@@QAEXXZ:PROC
;	COMDAT xdata$x
; File c:\program files (x86)\microsoft visual studio 10.0\vc\include\xstring
xdata$x	SEGMENT
__unwindtable$??1?$_String_val@_WV?$allocator@_W@std@@@std@@QAE@XZ DD 0ffffffffH
	DD	FLAT:__unwindfunclet$??1?$_String_val@_WV?$allocator@_W@std@@@std@@QAE@XZ$0
__ehfuncinfo$??1?$_String_val@_WV?$allocator@_W@std@@@std@@QAE@XZ DD 019930522H
	DD	01H
	DD	FLAT:__unwindtable$??1?$_String_val@_WV?$allocator@_W@std@@@std@@QAE@XZ
	DD	2 DUP(00H)
	DD	2 DUP(00H)
	DD	00H
	DD	01H
; Function compile flags: /Odtp /RTCsu /ZI
xdata$x	ENDS
;	COMDAT ??1?$_String_val@_WV?$allocator@_W@std@@@std@@QAE@XZ
_TEXT	SEGMENT
__Alproxy$ = -29					; size = 1
_this$ = -20						; size = 4
__$EHRec$ = -12						; size = 12
??1?$_String_val@_WV?$allocator@_W@std@@@std@@QAE@XZ PROC ; std::_String_val<wchar_t,std::allocator<wchar_t> >::~_String_val<wchar_t,std::allocator<wchar_t> >, COMDAT
; _this$ = ecx
; Line 475
	push	ebp
	mov	ebp, esp
	push	-1
	push	__ehhandler$??1?$_String_val@_WV?$allocator@_W@std@@@std@@QAE@XZ
	mov	eax, DWORD PTR fs:0
	push	eax
	sub	esp, 216				; 000000d8H
	push	ebx
	push	esi
	push	edi
	push	ecx
	lea	edi, DWORD PTR [ebp-228]
	mov	ecx, 54					; 00000036H
	mov	eax, -858993460				; ccccccccH
	rep stosd
	pop	ecx
	mov	eax, DWORD PTR ___security_cookie
	xor	eax, ebp
	push	eax
	lea	eax, DWORD PTR __$EHRec$[ebp]
	mov	DWORD PTR fs:0, eax
	mov	DWORD PTR _this$[ebp], ecx
	mov	DWORD PTR __$EHRec$[ebp+8], 0
; Line 477
	mov	eax, DWORD PTR _this$[ebp]
	add	eax, 28					; 0000001cH
	push	eax
	lea	ecx, DWORD PTR __Alproxy$[ebp]
	call	??$?0_W@?$allocator@U_Container_proxy@std@@@std@@QAE@ABV?$allocator@_W@1@@Z ; std::allocator<std::_Container_proxy>::allocator<std::_Container_proxy><wchar_t>
; Line 478
	mov	esi, esp
	mov	ecx, DWORD PTR _this$[ebp]
	call	DWORD PTR __imp_?_Orphan_all@_Container_base12@std@@QAEXXZ
	cmp	esi, esp
	call	__RTC_CheckEsp
; Line 479
	mov	eax, DWORD PTR _this$[ebp]
	mov	ecx, DWORD PTR [eax]
	push	ecx
	lea	edx, DWORD PTR __Alproxy$[ebp]
	push	edx
	call	??$_Dest_val@V?$allocator@U_Container_proxy@std@@@std@@U_Container_proxy@2@@std@@YAXAAV?$allocator@U_Container_proxy@std@@@0@PAU_Container_proxy@0@@Z ; std::_Dest_val<std::allocator<std::_Container_proxy>,std::_Container_proxy>
	add	esp, 8
; Line 480
	push	1
	mov	eax, DWORD PTR _this$[ebp]
	mov	ecx, DWORD PTR [eax]
	push	ecx
	lea	ecx, DWORD PTR __Alproxy$[ebp]
	call	?deallocate@?$allocator@U_Container_proxy@std@@@std@@QAEXPAU_Container_proxy@2@I@Z ; std::allocator<std::_Container_proxy>::deallocate
; Line 481
	mov	eax, DWORD PTR _this$[ebp]
	mov	DWORD PTR [eax], 0
; Line 482
	mov	DWORD PTR __$EHRec$[ebp+8], -1
	mov	esi, esp
	mov	ecx, DWORD PTR _this$[ebp]
	call	DWORD PTR __imp_??1_Container_base12@std@@QAE@XZ
	cmp	esi, esp
	call	__RTC_CheckEsp
	push	edx
	mov	ecx, ebp
	push	eax
	lea	edx, DWORD PTR $LN7@String_val
	call	@_RTC_CheckStackVars@8
	pop	eax
	pop	edx
	mov	ecx, DWORD PTR __$EHRec$[ebp]
	mov	DWORD PTR fs:0, ecx
	pop	ecx
	pop	edi
	pop	esi
	pop	ebx
	add	esp, 228				; 000000e4H
	cmp	ebp, esp
	call	__RTC_CheckEsp
	mov	esp, ebp
	pop	ebp
	ret	0
	npad	2
$LN7@String_val:
	DD	1
	DD	$LN6@String_val
$LN6@String_val:
	DD	-29					; ffffffe3H
	DD	1
	DD	$LN4@String_val
$LN4@String_val:
	DB	95					; 0000005fH
	DB	65					; 00000041H
	DB	108					; 0000006cH
	DB	112					; 00000070H
	DB	114					; 00000072H
	DB	111					; 0000006fH
	DB	120					; 00000078H
	DB	121					; 00000079H
	DB	0
_TEXT	ENDS
;	COMDAT text$x
text$x	SEGMENT
__unwindfunclet$??1?$_String_val@_WV?$allocator@_W@std@@@std@@QAE@XZ$0:
	mov	esi, esp
	mov	ecx, DWORD PTR _this$[ebp]
	call	DWORD PTR __imp_??1_Container_base12@std@@QAE@XZ
	cmp	esi, esp
	jmp	__RTC_CheckEsp
__ehhandler$??1?$_String_val@_WV?$allocator@_W@std@@@std@@QAE@XZ:
	mov	edx, DWORD PTR [esp+8]
	lea	eax, DWORD PTR [edx+12]
	mov	ecx, DWORD PTR [edx-232]
	xor	ecx, eax
	call	@__security_check_cookie@4
	mov	eax, OFFSET __ehfuncinfo$??1?$_String_val@_WV?$allocator@_W@std@@@std@@QAE@XZ
	jmp	___CxxFrameHandler3
text$x	ENDS
??1?$_String_val@_WV?$allocator@_W@std@@@std@@QAE@XZ ENDP ; std::_String_val<wchar_t,std::allocator<wchar_t> >::~_String_val<wchar_t,std::allocator<wchar_t> >
; Function compile flags: /Odtp /RTCsu /ZI
;	COMDAT ?_Get@?$_Ptr_base@VLibUSBImpl@LibUSB@@@tr1@std@@QBEPAVLibUSBImpl@LibUSB@@XZ
_TEXT	SEGMENT
_this$ = -8						; size = 4
?_Get@?$_Ptr_base@VLibUSBImpl@LibUSB@@@tr1@std@@QBEPAVLibUSBImpl@LibUSB@@XZ PROC ; std::tr1::_Ptr_base<LibUSB::LibUSBImpl>::_Get, COMDAT
; _this$ = ecx
; File c:\program files (x86)\microsoft visual studio 10.0\vc\include\memory
; Line 1278
	push	ebp
	mov	ebp, esp
	sub	esp, 204				; 000000ccH
	push	ebx
	push	esi
	push	edi
	push	ecx
	lea	edi, DWORD PTR [ebp-204]
	mov	ecx, 51					; 00000033H
	mov	eax, -858993460				; ccccccccH
	rep stosd
	pop	ecx
	mov	DWORD PTR _this$[ebp], ecx
; Line 1279
	mov	eax, DWORD PTR _this$[ebp]
	mov	eax, DWORD PTR [eax]
; Line 1280
	pop	edi
	pop	esi
	pop	ebx
	mov	esp, ebp
	pop	ebp
	ret	0
?_Get@?$_Ptr_base@VLibUSBImpl@LibUSB@@@tr1@std@@QBEPAVLibUSBImpl@LibUSB@@XZ ENDP ; std::tr1::_Ptr_base<LibUSB::LibUSBImpl>::_Get
; Function compile flags: /Odtp /RTCsu /ZI
_TEXT	ENDS
;	COMDAT ?_Get@?$_Ptr_base@Ulibusb_context@@@tr1@std@@QBEPAUlibusb_context@@XZ
_TEXT	SEGMENT
_this$ = -8						; size = 4
?_Get@?$_Ptr_base@Ulibusb_context@@@tr1@std@@QBEPAUlibusb_context@@XZ PROC ; std::tr1::_Ptr_base<libusb_context>::_Get, COMDAT
; _this$ = ecx
; Line 1278
	push	ebp
	mov	ebp, esp
	sub	esp, 204				; 000000ccH
	push	ebx
	push	esi
	push	edi
	push	ecx
	lea	edi, DWORD PTR [ebp-204]
	mov	ecx, 51					; 00000033H
	mov	eax, -858993460				; ccccccccH
	rep stosd
	pop	ecx
	mov	DWORD PTR _this$[ebp], ecx
; Line 1279
	mov	eax, DWORD PTR _this$[ebp]
	mov	eax, DWORD PTR [eax]
; Line 1280
	pop	edi
	pop	esi
	pop	ebx
	mov	esp, ebp
	pop	ebp
	ret	0
?_Get@?$_Ptr_base@Ulibusb_context@@@tr1@std@@QBEPAUlibusb_context@@XZ ENDP ; std::tr1::_Ptr_base<libusb_context>::_Get
_TEXT	ENDS
PUBLIC	?_Splice@?$list@V?$shared_ptr@VDevice@LibUSB@@@tr1@std@@V?$allocator@V?$shared_ptr@VDevice@LibUSB@@@tr1@std@@@3@@std@@QAEXV?$_List_const_iterator@V?$_List_val@V?$shared_ptr@VDevice@LibUSB@@@tr1@std@@V?$allocator@V?$shared_ptr@VDevice@LibUSB@@@tr1@std@@@3@@std@@@2@AAV12@00I@Z ; std::list<std::tr1::shared_ptr<LibUSB::Device>,std::allocator<std::tr1::shared_ptr<LibUSB::Device> > >::_Splice
PUBLIC	?begin@?$list@V?$shared_ptr@VDevice@LibUSB@@@tr1@std@@V?$allocator@V?$shared_ptr@VDevice@LibUSB@@@tr1@std@@@3@@std@@QAE?AV?$_List_iterator@V?$_List_val@V?$shared_ptr@VDevice@LibUSB@@@tr1@std@@V?$allocator@V?$shared_ptr@VDevice@LibUSB@@@tr1@std@@@3@@std@@@2@XZ ; std::list<std::tr1::shared_ptr<LibUSB::Device>,std::allocator<std::tr1::shared_ptr<LibUSB::Device> > >::begin
PUBLIC	?empty@?$list@V?$shared_ptr@VDevice@LibUSB@@@tr1@std@@V?$allocator@V?$shared_ptr@VDevice@LibUSB@@@tr1@std@@@3@@std@@QBE_NXZ ; std::list<std::tr1::shared_ptr<LibUSB::Device>,std::allocator<std::tr1::shared_ptr<LibUSB::Device> > >::empty
PUBLIC	?clear@?$list@V?$shared_ptr@VDevice@LibUSB@@@tr1@std@@V?$allocator@V?$shared_ptr@VDevice@LibUSB@@@tr1@std@@@3@@std@@QAEXXZ ; std::list<std::tr1::shared_ptr<LibUSB::Device>,std::allocator<std::tr1::shared_ptr<LibUSB::Device> > >::clear
;	COMDAT xdata$x
; File c:\program files (x86)\microsoft visual studio 10.0\vc\include\list
xdata$x	SEGMENT
__ehfuncinfo$?_Assign_rv@?$list@V?$shared_ptr@VDevice@LibUSB@@@tr1@std@@V?$allocator@V?$shared_ptr@VDevice@LibUSB@@@tr1@std@@@3@@std@@QAEX$$QAV12@@Z DD 019930522H
	DD	07H
	DD	FLAT:__unwindtable$?_Assign_rv@?$list@V?$shared_ptr@VDevice@LibUSB@@@tr1@std@@V?$allocator@V?$shared_ptr@VDevice@LibUSB@@@tr1@std@@@3@@std@@QAEX$$QAV12@@Z
	DD	2 DUP(00H)
	DD	2 DUP(00H)
	DD	00H
	DD	01H
__unwindtable$?_Assign_rv@?$list@V?$shared_ptr@VDevice@LibUSB@@@tr1@std@@V?$allocator@V?$shared_ptr@VDevice@LibUSB@@@tr1@std@@@3@@std@@QAEX$$QAV12@@Z DD 0ffffffffH
	DD	FLAT:__unwindfunclet$?_Assign_rv@?$list@V?$shared_ptr@VDevice@LibUSB@@@tr1@std@@V?$allocator@V?$shared_ptr@VDevice@LibUSB@@@tr1@std@@@3@@std@@QAEX$$QAV12@@Z$0
	DD	00H
	DD	FLAT:__unwindfunclet$?_Assign_rv@?$list@V?$shared_ptr@VDevice@LibUSB@@@tr1@std@@V?$allocator@V?$shared_ptr@VDevice@LibUSB@@@tr1@std@@@3@@std@@QAEX$$QAV12@@Z$1
	DD	01H
	DD	FLAT:__unwindfunclet$?_Assign_rv@?$list@V?$shared_ptr@VDevice@LibUSB@@@tr1@std@@V?$allocator@V?$shared_ptr@VDevice@LibUSB@@@tr1@std@@@3@@std@@QAEX$$QAV12@@Z$2
	DD	02H
	DD	FLAT:__unwindfunclet$?_Assign_rv@?$list@V?$shared_ptr@VDevice@LibUSB@@@tr1@std@@V?$allocator@V?$shared_ptr@VDevice@LibUSB@@@tr1@std@@@3@@std@@QAEX$$QAV12@@Z$3
	DD	03H
	DD	FLAT:__unwindfunclet$?_Assign_rv@?$list@V?$shared_ptr@VDevice@LibUSB@@@tr1@std@@V?$allocator@V?$shared_ptr@VDevice@LibUSB@@@tr1@std@@@3@@std@@QAEX$$QAV12@@Z$4
	DD	00H
	DD	FLAT:__unwindfunclet$?_Assign_rv@?$list@V?$shared_ptr@VDevice@LibUSB@@@tr1@std@@V?$allocator@V?$shared_ptr@VDevice@LibUSB@@@tr1@std@@@3@@std@@QAEX$$QAV12@@Z$2
	DD	05H
	DD	FLAT:__unwindfunclet$?_Assign_rv@?$list@V?$shared_ptr@VDevice@LibUSB@@@tr1@std@@V?$allocator@V?$shared_ptr@VDevice@LibUSB@@@tr1@std@@@3@@std@@QAEX$$QAV12@@Z$4
; Function compile flags: /Odtp /RTCsu /ZI
xdata$x	ENDS
;	COMDAT ?_Assign_rv@?$list@V?$shared_ptr@VDevice@LibUSB@@@tr1@std@@V?$allocator@V?$shared_ptr@VDevice@LibUSB@@@tr1@std@@@3@@std@@QAEX$$QAV12@@Z
_TEXT	SEGMENT
tv192 = -356						; size = 4
tv188 = -352						; size = 4
tv197 = -348						; size = 4
tv186 = -344						; size = 4
tv196 = -340						; size = 4
tv183 = -336						; size = 4
tv195 = -332						; size = 4
tv181 = -328						; size = 4
tv194 = -324						; size = 4
tv178 = -320						; size = 4
tv193 = -316						; size = 4
$T130740 = -308						; size = 4
$T130741 = -296						; size = 12
$T130742 = -276						; size = 4
$T130743 = -264						; size = 12
$T130744 = -244						; size = 4
$T130745 = -232						; size = 12
_this$ = -20						; size = 4
__$EHRec$ = -12						; size = 12
__Right$ = 8						; size = 4
?_Assign_rv@?$list@V?$shared_ptr@VDevice@LibUSB@@@tr1@std@@V?$allocator@V?$shared_ptr@VDevice@LibUSB@@@tr1@std@@@3@@std@@QAEX$$QAV12@@Z PROC ; std::list<std::tr1::shared_ptr<LibUSB::Device>,std::allocator<std::tr1::shared_ptr<LibUSB::Device> > >::_Assign_rv, COMDAT
; _this$ = ecx
; Line 700
	push	ebp
	mov	ebp, esp
	push	-1
	push	__ehhandler$?_Assign_rv@?$list@V?$shared_ptr@VDevice@LibUSB@@@tr1@std@@V?$allocator@V?$shared_ptr@VDevice@LibUSB@@@tr1@std@@@3@@std@@QAEX$$QAV12@@Z
	mov	eax, DWORD PTR fs:0
	push	eax
	sub	esp, 344				; 00000158H
	push	ebx
	push	esi
	push	edi
	push	ecx
	lea	edi, DWORD PTR [ebp-356]
	mov	ecx, 86					; 00000056H
	mov	eax, -858993460				; ccccccccH
	rep stosd
	pop	ecx
	mov	eax, DWORD PTR ___security_cookie
	xor	eax, ebp
	push	eax
	lea	eax, DWORD PTR __$EHRec$[ebp]
	mov	DWORD PTR fs:0, eax
	mov	DWORD PTR _this$[ebp], ecx
; Line 701
	mov	eax, DWORD PTR _this$[ebp]
	cmp	eax, DWORD PTR __Right$[ebp]
	je	$LN3@Assign_rv
; Line 703
	mov	ecx, DWORD PTR _this$[ebp]
	call	?clear@?$list@V?$shared_ptr@VDevice@LibUSB@@@tr1@std@@V?$allocator@V?$shared_ptr@VDevice@LibUSB@@@tr1@std@@@3@@std@@QAEXXZ ; std::list<std::tr1::shared_ptr<LibUSB::Device>,std::allocator<std::tr1::shared_ptr<LibUSB::Device> > >::clear
; Line 704
	mov	ecx, DWORD PTR __Right$[ebp]
	call	?empty@?$list@V?$shared_ptr@VDevice@LibUSB@@@tr1@std@@V?$allocator@V?$shared_ptr@VDevice@LibUSB@@@tr1@std@@@3@@std@@QBE_NXZ ; std::list<std::tr1::shared_ptr<LibUSB::Device>,std::allocator<std::tr1::shared_ptr<LibUSB::Device> > >::empty
	movzx	eax, al
	test	eax, eax
	jne	$LN3@Assign_rv
; Line 706
	mov	eax, DWORD PTR __Right$[ebp]
	mov	ecx, DWORD PTR [eax+8]
	push	ecx
	lea	edx, DWORD PTR $T130741[ebp]
	push	edx
	mov	ecx, DWORD PTR __Right$[ebp]
	call	?end@?$list@V?$shared_ptr@VDevice@LibUSB@@@tr1@std@@V?$allocator@V?$shared_ptr@VDevice@LibUSB@@@tr1@std@@@3@@std@@QAE?AV?$_List_iterator@V?$_List_val@V?$shared_ptr@VDevice@LibUSB@@@tr1@std@@V?$allocator@V?$shared_ptr@VDevice@LibUSB@@@tr1@std@@@3@@std@@@2@XZ ; std::list<std::tr1::shared_ptr<LibUSB::Device>,std::allocator<std::tr1::shared_ptr<LibUSB::Device> > >::end
	mov	DWORD PTR tv193[ebp], eax
	mov	eax, DWORD PTR tv193[ebp]
	mov	DWORD PTR tv178[ebp], eax
	mov	DWORD PTR __$EHRec$[ebp+8], 0
	sub	esp, 12					; 0000000cH
	mov	ecx, esp
	mov	DWORD PTR $T130740[ebp], esp
	mov	edx, DWORD PTR tv178[ebp]
	push	edx
	call	??0?$_List_const_iterator@V?$_List_val@V?$shared_ptr@VDevice@LibUSB@@@tr1@std@@V?$allocator@V?$shared_ptr@VDevice@LibUSB@@@tr1@std@@@3@@std@@@std@@QAE@ABV01@@Z
	mov	DWORD PTR tv194[ebp], eax
	mov	eax, DWORD PTR tv194[ebp]
	mov	DWORD PTR tv181[ebp], eax
	mov	BYTE PTR __$EHRec$[ebp+8], 1
	lea	ecx, DWORD PTR $T130743[ebp]
	push	ecx
	mov	ecx, DWORD PTR __Right$[ebp]
	call	?begin@?$list@V?$shared_ptr@VDevice@LibUSB@@@tr1@std@@V?$allocator@V?$shared_ptr@VDevice@LibUSB@@@tr1@std@@@3@@std@@QAE?AV?$_List_iterator@V?$_List_val@V?$shared_ptr@VDevice@LibUSB@@@tr1@std@@V?$allocator@V?$shared_ptr@VDevice@LibUSB@@@tr1@std@@@3@@std@@@2@XZ ; std::list<std::tr1::shared_ptr<LibUSB::Device>,std::allocator<std::tr1::shared_ptr<LibUSB::Device> > >::begin
	mov	DWORD PTR tv195[ebp], eax
	mov	edx, DWORD PTR tv195[ebp]
	mov	DWORD PTR tv183[ebp], edx
	mov	BYTE PTR __$EHRec$[ebp+8], 2
	sub	esp, 12					; 0000000cH
	mov	ecx, esp
	mov	DWORD PTR $T130742[ebp], esp
	mov	eax, DWORD PTR tv183[ebp]
	push	eax
	call	??0?$_List_const_iterator@V?$_List_val@V?$shared_ptr@VDevice@LibUSB@@@tr1@std@@V?$allocator@V?$shared_ptr@VDevice@LibUSB@@@tr1@std@@@3@@std@@@std@@QAE@ABV01@@Z
	mov	DWORD PTR tv196[ebp], eax
	mov	ecx, DWORD PTR tv196[ebp]
	mov	DWORD PTR tv186[ebp], ecx
	mov	BYTE PTR __$EHRec$[ebp+8], 3
	mov	edx, DWORD PTR __Right$[ebp]
	push	edx
	lea	eax, DWORD PTR $T130745[ebp]
	push	eax
	mov	ecx, DWORD PTR _this$[ebp]
	call	?begin@?$list@V?$shared_ptr@VDevice@LibUSB@@@tr1@std@@V?$allocator@V?$shared_ptr@VDevice@LibUSB@@@tr1@std@@@3@@std@@QAE?AV?$_List_iterator@V?$_List_val@V?$shared_ptr@VDevice@LibUSB@@@tr1@std@@V?$allocator@V?$shared_ptr@VDevice@LibUSB@@@tr1@std@@@3@@std@@@2@XZ ; std::list<std::tr1::shared_ptr<LibUSB::Device>,std::allocator<std::tr1::shared_ptr<LibUSB::Device> > >::begin
	mov	DWORD PTR tv197[ebp], eax
	mov	ecx, DWORD PTR tv197[ebp]
	mov	DWORD PTR tv188[ebp], ecx
	mov	BYTE PTR __$EHRec$[ebp+8], 4
	sub	esp, 12					; 0000000cH
	mov	ecx, esp
	mov	DWORD PTR $T130744[ebp], esp
	mov	edx, DWORD PTR tv188[ebp]
	push	edx
	call	??0?$_List_const_iterator@V?$_List_val@V?$shared_ptr@VDevice@LibUSB@@@tr1@std@@V?$allocator@V?$shared_ptr@VDevice@LibUSB@@@tr1@std@@@3@@std@@@std@@QAE@ABV01@@Z
	mov	DWORD PTR tv192[ebp], eax
	mov	BYTE PTR __$EHRec$[ebp+8], 6
	mov	ecx, DWORD PTR _this$[ebp]
	call	?_Splice@?$list@V?$shared_ptr@VDevice@LibUSB@@@tr1@std@@V?$allocator@V?$shared_ptr@VDevice@LibUSB@@@tr1@std@@@3@@std@@QAEXV?$_List_const_iterator@V?$_List_val@V?$shared_ptr@VDevice@LibUSB@@@tr1@std@@V?$allocator@V?$shared_ptr@VDevice@LibUSB@@@tr1@std@@@3@@std@@@2@AAV12@00I@Z ; std::list<std::tr1::shared_ptr<LibUSB::Device>,std::allocator<std::tr1::shared_ptr<LibUSB::Device> > >::_Splice
	mov	BYTE PTR __$EHRec$[ebp+8], 5
	lea	ecx, DWORD PTR $T130745[ebp]
	call	??1?$_List_iterator@V?$_List_val@V?$shared_ptr@VDevice@LibUSB@@@tr1@std@@V?$allocator@V?$shared_ptr@VDevice@LibUSB@@@tr1@std@@@3@@std@@@std@@QAE@XZ
	mov	BYTE PTR __$EHRec$[ebp+8], 0
	lea	ecx, DWORD PTR $T130743[ebp]
	call	??1?$_List_iterator@V?$_List_val@V?$shared_ptr@VDevice@LibUSB@@@tr1@std@@V?$allocator@V?$shared_ptr@VDevice@LibUSB@@@tr1@std@@@3@@std@@@std@@QAE@XZ
	mov	DWORD PTR __$EHRec$[ebp+8], -1
	lea	ecx, DWORD PTR $T130741[ebp]
	call	??1?$_List_iterator@V?$_List_val@V?$shared_ptr@VDevice@LibUSB@@@tr1@std@@V?$allocator@V?$shared_ptr@VDevice@LibUSB@@@tr1@std@@@3@@std@@@std@@QAE@XZ
$LN3@Assign_rv:
; Line 708
	mov	ecx, DWORD PTR __$EHRec$[ebp]
	mov	DWORD PTR fs:0, ecx
	pop	ecx
	pop	edi
	pop	esi
	pop	ebx
	add	esp, 356				; 00000164H
	cmp	ebp, esp
	call	__RTC_CheckEsp
	mov	esp, ebp
	pop	ebp
	ret	4
_TEXT	ENDS
;	COMDAT text$x
text$x	SEGMENT
__unwindfunclet$?_Assign_rv@?$list@V?$shared_ptr@VDevice@LibUSB@@@tr1@std@@V?$allocator@V?$shared_ptr@VDevice@LibUSB@@@tr1@std@@@3@@std@@QAEX$$QAV12@@Z$0:
	lea	ecx, DWORD PTR $T130741[ebp]
	jmp	??1?$_List_iterator@V?$_List_val@V?$shared_ptr@VDevice@LibUSB@@@tr1@std@@V?$allocator@V?$shared_ptr@VDevice@LibUSB@@@tr1@std@@@3@@std@@@std@@QAE@XZ
__unwindfunclet$?_Assign_rv@?$list@V?$shared_ptr@VDevice@LibUSB@@@tr1@std@@V?$allocator@V?$shared_ptr@VDevice@LibUSB@@@tr1@std@@@3@@std@@QAEX$$QAV12@@Z$1:
	mov	ecx, DWORD PTR $T130740[ebp]
	jmp	??1?$_List_const_iterator@V?$_List_val@V?$shared_ptr@VDevice@LibUSB@@@tr1@std@@V?$allocator@V?$shared_ptr@VDevice@LibUSB@@@tr1@std@@@3@@std@@@std@@QAE@XZ
__unwindfunclet$?_Assign_rv@?$list@V?$shared_ptr@VDevice@LibUSB@@@tr1@std@@V?$allocator@V?$shared_ptr@VDevice@LibUSB@@@tr1@std@@@3@@std@@QAEX$$QAV12@@Z$2:
	lea	ecx, DWORD PTR $T130743[ebp]
	jmp	??1?$_List_iterator@V?$_List_val@V?$shared_ptr@VDevice@LibUSB@@@tr1@std@@V?$allocator@V?$shared_ptr@VDevice@LibUSB@@@tr1@std@@@3@@std@@@std@@QAE@XZ
__unwindfunclet$?_Assign_rv@?$list@V?$shared_ptr@VDevice@LibUSB@@@tr1@std@@V?$allocator@V?$shared_ptr@VDevice@LibUSB@@@tr1@std@@@3@@std@@QAEX$$QAV12@@Z$3:
	mov	ecx, DWORD PTR $T130742[ebp]
	jmp	??1?$_List_const_iterator@V?$_List_val@V?$shared_ptr@VDevice@LibUSB@@@tr1@std@@V?$allocator@V?$shared_ptr@VDevice@LibUSB@@@tr1@std@@@3@@std@@@std@@QAE@XZ
__unwindfunclet$?_Assign_rv@?$list@V?$shared_ptr@VDevice@LibUSB@@@tr1@std@@V?$allocator@V?$shared_ptr@VDevice@LibUSB@@@tr1@std@@@3@@std@@QAEX$$QAV12@@Z$4:
	lea	ecx, DWORD PTR $T130745[ebp]
	jmp	??1?$_List_iterator@V?$_List_val@V?$shared_ptr@VDevice@LibUSB@@@tr1@std@@V?$allocator@V?$shared_ptr@VDevice@LibUSB@@@tr1@std@@@3@@std@@@std@@QAE@XZ
__ehhandler$?_Assign_rv@?$list@V?$shared_ptr@VDevice@LibUSB@@@tr1@std@@V?$allocator@V?$shared_ptr@VDevice@LibUSB@@@tr1@std@@@3@@std@@QAEX$$QAV12@@Z:
	mov	edx, DWORD PTR [esp+8]
	lea	eax, DWORD PTR [edx+12]
	mov	ecx, DWORD PTR [edx-360]
	xor	ecx, eax
	call	@__security_check_cookie@4
	mov	eax, OFFSET __ehfuncinfo$?_Assign_rv@?$list@V?$shared_ptr@VDevice@LibUSB@@@tr1@std@@V?$allocator@V?$shared_ptr@VDevice@LibUSB@@@tr1@std@@@3@@std@@QAEX$$QAV12@@Z
	jmp	___CxxFrameHandler3
text$x	ENDS
?_Assign_rv@?$list@V?$shared_ptr@VDevice@LibUSB@@@tr1@std@@V?$allocator@V?$shared_ptr@VDevice@LibUSB@@@tr1@std@@@3@@std@@QAEX$$QAV12@@Z ENDP ; std::list<std::tr1::shared_ptr<LibUSB::Device>,std::allocator<std::tr1::shared_ptr<LibUSB::Device> > >::_Assign_rv
PUBLIC	??0?$_List_iterator@V?$_List_val@V?$shared_ptr@VDevice@LibUSB@@@tr1@std@@V?$allocator@V?$shared_ptr@VDevice@LibUSB@@@tr1@std@@@3@@std@@@std@@QAE@PAU_Node@?$_List_nod@V?$shared_ptr@VDevice@LibUSB@@@tr1@std@@V?$allocator@V?$shared_ptr@VDevice@LibUSB@@@tr1@std@@@3@@1@PBV?$_List_val@V?$shared_ptr@VDevice@LibUSB@@@tr1@std@@V?$allocator@V?$shared_ptr@VDevice@LibUSB@@@tr1@std@@@3@@1@@Z ; std::_List_iterator<std::_List_val<std::tr1::shared_ptr<LibUSB::Device>,std::allocator<std::tr1::shared_ptr<LibUSB::Device> > > >::_List_iterator<std::_List_val<std::tr1::shared_ptr<LibUSB::Device>,std::allocator<std::tr1::shared_ptr<LibUSB::Device> > > >
; Function compile flags: /Odtp /RTCsu /ZI
;	COMDAT ?end@?$list@V?$shared_ptr@VDevice@LibUSB@@@tr1@std@@V?$allocator@V?$shared_ptr@VDevice@LibUSB@@@tr1@std@@@3@@std@@QAE?AV?$_List_iterator@V?$_List_val@V?$shared_ptr@VDevice@LibUSB@@@tr1@std@@V?$allocator@V?$shared_ptr@VDevice@LibUSB@@@tr1@std@@@3@@std@@@2@XZ
_TEXT	SEGMENT
$T130761 = -212						; size = 4
_this$ = -8						; size = 4
___$ReturnUdt$ = 8					; size = 4
?end@?$list@V?$shared_ptr@VDevice@LibUSB@@@tr1@std@@V?$allocator@V?$shared_ptr@VDevice@LibUSB@@@tr1@std@@@3@@std@@QAE?AV?$_List_iterator@V?$_List_val@V?$shared_ptr@VDevice@LibUSB@@@tr1@std@@V?$allocator@V?$shared_ptr@VDevice@LibUSB@@@tr1@std@@@3@@std@@@2@XZ PROC ; std::list<std::tr1::shared_ptr<LibUSB::Device>,std::allocator<std::tr1::shared_ptr<LibUSB::Device> > >::end, COMDAT
; _this$ = ecx
; Line 791
	push	ebp
	mov	ebp, esp
	sub	esp, 216				; 000000d8H
	push	ebx
	push	esi
	push	edi
	push	ecx
	lea	edi, DWORD PTR [ebp-216]
	mov	ecx, 54					; 00000036H
	mov	eax, -858993460				; ccccccccH
	rep stosd
	pop	ecx
	mov	DWORD PTR _this$[ebp], ecx
	mov	DWORD PTR $T130761[ebp], 0
; Line 792
	mov	eax, DWORD PTR _this$[ebp]
	push	eax
	mov	ecx, DWORD PTR _this$[ebp]
	mov	edx, DWORD PTR [ecx+4]
	push	edx
	mov	ecx, DWORD PTR ___$ReturnUdt$[ebp]
	call	??0?$_List_iterator@V?$_List_val@V?$shared_ptr@VDevice@LibUSB@@@tr1@std@@V?$allocator@V?$shared_ptr@VDevice@LibUSB@@@tr1@std@@@3@@std@@@std@@QAE@PAU_Node@?$_List_nod@V?$shared_ptr@VDevice@LibUSB@@@tr1@std@@V?$allocator@V?$shared_ptr@VDevice@LibUSB@@@tr1@std@@@3@@1@PBV?$_List_val@V?$shared_ptr@VDevice@LibUSB@@@tr1@std@@V?$allocator@V?$shared_ptr@VDevice@LibUSB@@@tr1@std@@@3@@1@@Z ; std::_List_iterator<std::_List_val<std::tr1::shared_ptr<LibUSB::Device>,std::allocator<std::tr1::shared_ptr<LibUSB::Device> > > >::_List_iterator<std::_List_val<std::tr1::shared_ptr<LibUSB::Device>,std::allocator<std::tr1::shared_ptr<LibUSB::Device> > > >
	mov	eax, DWORD PTR $T130761[ebp]
	or	eax, 1
	mov	DWORD PTR $T130761[ebp], eax
	mov	eax, DWORD PTR ___$ReturnUdt$[ebp]
; Line 793
	pop	edi
	pop	esi
	pop	ebx
	add	esp, 216				; 000000d8H
	cmp	ebp, esp
	call	__RTC_CheckEsp
	mov	esp, ebp
	pop	ebp
	ret	4
?end@?$list@V?$shared_ptr@VDevice@LibUSB@@@tr1@std@@V?$allocator@V?$shared_ptr@VDevice@LibUSB@@@tr1@std@@@3@@std@@QAE?AV?$_List_iterator@V?$_List_val@V?$shared_ptr@VDevice@LibUSB@@@tr1@std@@V?$allocator@V?$shared_ptr@VDevice@LibUSB@@@tr1@std@@@3@@std@@@2@XZ ENDP ; std::list<std::tr1::shared_ptr<LibUSB::Device>,std::allocator<std::tr1::shared_ptr<LibUSB::Device> > >::end
_TEXT	ENDS
PUBLIC	?_Nextnode@?$_List_val@V?$shared_ptr@VDevice@LibUSB@@@tr1@std@@V?$allocator@V?$shared_ptr@VDevice@LibUSB@@@tr1@std@@@3@@std@@SAAAPAU_Node@?$_List_nod@V?$shared_ptr@VDevice@LibUSB@@@tr1@std@@V?$allocator@V?$shared_ptr@VDevice@LibUSB@@@tr1@std@@@3@@2@PAU342@@Z ; std::_List_val<std::tr1::shared_ptr<LibUSB::Device>,std::allocator<std::tr1::shared_ptr<LibUSB::Device> > >::_Nextnode
PUBLIC	?_Incsize@?$list@V?$shared_ptr@VDevice@LibUSB@@@tr1@std@@V?$allocator@V?$shared_ptr@VDevice@LibUSB@@@tr1@std@@@3@@std@@QAEXI@Z ; std::list<std::tr1::shared_ptr<LibUSB::Device>,std::allocator<std::tr1::shared_ptr<LibUSB::Device> > >::_Incsize
PUBLIC	?_Buynode@?$_List_val@V?$shared_ptr@VDevice@LibUSB@@@tr1@std@@V?$allocator@V?$shared_ptr@VDevice@LibUSB@@@tr1@std@@@3@@std@@QAEPAU_Node@?$_List_nod@V?$shared_ptr@VDevice@LibUSB@@@tr1@std@@V?$allocator@V?$shared_ptr@VDevice@LibUSB@@@tr1@std@@@3@@2@PAU342@0ABV?$shared_ptr@VDevice@LibUSB@@@tr1@2@@Z ; std::_List_val<std::tr1::shared_ptr<LibUSB::Device>,std::allocator<std::tr1::shared_ptr<LibUSB::Device> > >::_Buynode
PUBLIC	?_Prevnode@?$_List_val@V?$shared_ptr@VDevice@LibUSB@@@tr1@std@@V?$allocator@V?$shared_ptr@VDevice@LibUSB@@@tr1@std@@@3@@std@@SAAAPAU_Node@?$_List_nod@V?$shared_ptr@VDevice@LibUSB@@@tr1@std@@V?$allocator@V?$shared_ptr@VDevice@LibUSB@@@tr1@std@@@3@@2@PAU342@@Z ; std::_List_val<std::tr1::shared_ptr<LibUSB::Device>,std::allocator<std::tr1::shared_ptr<LibUSB::Device> > >::_Prevnode
PUBLIC	?_Mynode@?$_List_unchecked_const_iterator@V?$_List_val@V?$shared_ptr@VDevice@LibUSB@@@tr1@std@@V?$allocator@V?$shared_ptr@VDevice@LibUSB@@@tr1@std@@@3@@std@@U_Iterator_base12@2@@std@@QBEPAU_Node@?$_List_nod@V?$shared_ptr@VDevice@LibUSB@@@tr1@std@@V?$allocator@V?$shared_ptr@VDevice@LibUSB@@@tr1@std@@@3@@2@XZ ; std::_List_unchecked_const_iterator<std::_List_val<std::tr1::shared_ptr<LibUSB::Device>,std::allocator<std::tr1::shared_ptr<LibUSB::Device> > >,std::_Iterator_base12>::_Mynode
PUBLIC	??_C@_1EG@BPNHNPIG@?$AAl?$AAi?$AAs?$AAt?$AA?5?$AAi?$AAn?$AAs?$AAe?$AAr?$AAt?$AA?5?$AAi?$AAt?$AAe?$AAr?$AAa?$AAt?$AAo?$AAr?$AA?5?$AAo?$AAu?$AAt?$AAs?$AAi?$AAd?$AAe?$AA?5?$AAr?$AAa?$AAn@ ; `string'
PUBLIC	??_C@_1II@BMCPAJCJ@?$AAc?$AA?3?$AA?2?$AAp?$AAr?$AAo?$AAg?$AAr?$AAa?$AAm?$AA?5?$AAf?$AAi?$AAl?$AAe?$AAs?$AA?5?$AA?$CI?$AAx?$AA8?$AA6?$AA?$CJ?$AA?2?$AAm?$AAi?$AAc?$AAr?$AAo?$AAs?$AAo?$AAf?$AAt@ ; `string'
PUBLIC	?_Getcont@_Iterator_base12@std@@QBEPBU_Container_base12@2@XZ ; std::_Iterator_base12::_Getcont
;	COMDAT ??_C@_1EG@BPNHNPIG@?$AAl?$AAi?$AAs?$AAt?$AA?5?$AAi?$AAn?$AAs?$AAe?$AAr?$AAt?$AA?5?$AAi?$AAt?$AAe?$AAr?$AAa?$AAt?$AAo?$AAr?$AA?5?$AAo?$AAu?$AAt?$AAs?$AAi?$AAd?$AAe?$AA?5?$AAr?$AAa?$AAn@
CONST	SEGMENT
??_C@_1EG@BPNHNPIG@?$AAl?$AAi?$AAs?$AAt?$AA?5?$AAi?$AAn?$AAs?$AAe?$AAr?$AAt?$AA?5?$AAi?$AAt?$AAe?$AAr?$AAa?$AAt?$AAo?$AAr?$AA?5?$AAo?$AAu?$AAt?$AAs?$AAi?$AAd?$AAe?$AA?5?$AAr?$AAa?$AAn@ DB 'l'
	DB	00H, 'i', 00H, 's', 00H, 't', 00H, ' ', 00H, 'i', 00H, 'n', 00H
	DB	's', 00H, 'e', 00H, 'r', 00H, 't', 00H, ' ', 00H, 'i', 00H, 't'
	DB	00H, 'e', 00H, 'r', 00H, 'a', 00H, 't', 00H, 'o', 00H, 'r', 00H
	DB	' ', 00H, 'o', 00H, 'u', 00H, 't', 00H, 's', 00H, 'i', 00H, 'd'
	DB	00H, 'e', 00H, ' ', 00H, 'r', 00H, 'a', 00H, 'n', 00H, 'g', 00H
	DB	'e', 00H, 00H, 00H				; `string'
CONST	ENDS
;	COMDAT ??_C@_1II@BMCPAJCJ@?$AAc?$AA?3?$AA?2?$AAp?$AAr?$AAo?$AAg?$AAr?$AAa?$AAm?$AA?5?$AAf?$AAi?$AAl?$AAe?$AAs?$AA?5?$AA?$CI?$AAx?$AA8?$AA6?$AA?$CJ?$AA?2?$AAm?$AAi?$AAc?$AAr?$AAo?$AAs?$AAo?$AAf?$AAt@
CONST	SEGMENT
??_C@_1II@BMCPAJCJ@?$AAc?$AA?3?$AA?2?$AAp?$AAr?$AAo?$AAg?$AAr?$AAa?$AAm?$AA?5?$AAf?$AAi?$AAl?$AAe?$AAs?$AA?5?$AA?$CI?$AAx?$AA8?$AA6?$AA?$CJ?$AA?2?$AAm?$AAi?$AAc?$AAr?$AAo?$AAs?$AAo?$AAf?$AAt@ DB 'c'
	DB	00H, ':', 00H, '\', 00H, 'p', 00H, 'r', 00H, 'o', 00H, 'g', 00H
	DB	'r', 00H, 'a', 00H, 'm', 00H, ' ', 00H, 'f', 00H, 'i', 00H, 'l'
	DB	00H, 'e', 00H, 's', 00H, ' ', 00H, '(', 00H, 'x', 00H, '8', 00H
	DB	'6', 00H, ')', 00H, '\', 00H, 'm', 00H, 'i', 00H, 'c', 00H, 'r'
	DB	00H, 'o', 00H, 's', 00H, 'o', 00H, 'f', 00H, 't', 00H, ' ', 00H
	DB	'v', 00H, 'i', 00H, 's', 00H, 'u', 00H, 'a', 00H, 'l', 00H, ' '
	DB	00H, 's', 00H, 't', 00H, 'u', 00H, 'd', 00H, 'i', 00H, 'o', 00H
	DB	' ', 00H, '1', 00H, '0', 00H, '.', 00H, '0', 00H, '\', 00H, 'v'
	DB	00H, 'c', 00H, '\', 00H, 'i', 00H, 'n', 00H, 'c', 00H, 'l', 00H
	DB	'u', 00H, 'd', 00H, 'e', 00H, '\', 00H, 'l', 00H, 'i', 00H, 's'
	DB	00H, 't', 00H, 00H, 00H			; `string'
CONST	ENDS
;	COMDAT xdata$x
xdata$x	SEGMENT
__unwindtable$?_Insert@?$list@V?$shared_ptr@VDevice@LibUSB@@@tr1@std@@V?$allocator@V?$shared_ptr@VDevice@LibUSB@@@tr1@std@@@3@@std@@QAEXV?$_List_const_iterator@V?$_List_val@V?$shared_ptr@VDevice@LibUSB@@@tr1@std@@V?$allocator@V?$shared_ptr@VDevice@LibUSB@@@tr1@std@@@3@@std@@@2@ABV?$shared_ptr@VDevice@LibUSB@@@tr1@2@@Z DD 0ffffffffH
	DD	FLAT:__unwindfunclet$?_Insert@?$list@V?$shared_ptr@VDevice@LibUSB@@@tr1@std@@V?$allocator@V?$shared_ptr@VDevice@LibUSB@@@tr1@std@@@3@@std@@QAEXV?$_List_const_iterator@V?$_List_val@V?$shared_ptr@VDevice@LibUSB@@@tr1@std@@V?$allocator@V?$shared_ptr@VDevice@LibUSB@@@tr1@std@@@3@@std@@@2@ABV?$shared_ptr@VDevice@LibUSB@@@tr1@2@@Z$0
__ehfuncinfo$?_Insert@?$list@V?$shared_ptr@VDevice@LibUSB@@@tr1@std@@V?$allocator@V?$shared_ptr@VDevice@LibUSB@@@tr1@std@@@3@@std@@QAEXV?$_List_const_iterator@V?$_List_val@V?$shared_ptr@VDevice@LibUSB@@@tr1@std@@V?$allocator@V?$shared_ptr@VDevice@LibUSB@@@tr1@std@@@3@@std@@@2@ABV?$shared_ptr@VDevice@LibUSB@@@tr1@2@@Z DD 019930522H
	DD	01H
	DD	FLAT:__unwindtable$?_Insert@?$list@V?$shared_ptr@VDevice@LibUSB@@@tr1@std@@V?$allocator@V?$shared_ptr@VDevice@LibUSB@@@tr1@std@@@3@@std@@QAEXV?$_List_const_iterator@V?$_List_val@V?$shared_ptr@VDevice@LibUSB@@@tr1@std@@V?$allocator@V?$shared_ptr@VDevice@LibUSB@@@tr1@std@@@3@@std@@@2@ABV?$shared_ptr@VDevice@LibUSB@@@tr1@2@@Z
	DD	2 DUP(00H)
	DD	2 DUP(00H)
	DD	00H
	DD	01H
; Function compile flags: /Odtp /RTCsu /ZI
xdata$x	ENDS
;	COMDAT ?_Insert@?$list@V?$shared_ptr@VDevice@LibUSB@@@tr1@std@@V?$allocator@V?$shared_ptr@VDevice@LibUSB@@@tr1@std@@@3@@std@@QAEXV?$_List_const_iterator@V?$_List_val@V?$shared_ptr@VDevice@LibUSB@@@tr1@std@@V?$allocator@V?$shared_ptr@VDevice@LibUSB@@@tr1@std@@@3@@std@@@2@ABV?$shared_ptr@VDevice@LibUSB@@@tr1@2@@Z
_TEXT	SEGMENT
__Newnode$ = -44					; size = 4
__Pnode$ = -32						; size = 4
_this$ = -20						; size = 4
__$EHRec$ = -12						; size = 12
__Where$ = 8						; size = 12
__Val$ = 20						; size = 4
?_Insert@?$list@V?$shared_ptr@VDevice@LibUSB@@@tr1@std@@V?$allocator@V?$shared_ptr@VDevice@LibUSB@@@tr1@std@@@3@@std@@QAEXV?$_List_const_iterator@V?$_List_val@V?$shared_ptr@VDevice@LibUSB@@@tr1@std@@V?$allocator@V?$shared_ptr@VDevice@LibUSB@@@tr1@std@@@3@@std@@@2@ABV?$shared_ptr@VDevice@LibUSB@@@tr1@2@@Z PROC ; std::list<std::tr1::shared_ptr<LibUSB::Device>,std::allocator<std::tr1::shared_ptr<LibUSB::Device> > >::_Insert, COMDAT
; _this$ = ecx
; Line 967
	push	ebp
	mov	ebp, esp
	push	-1
	push	__ehhandler$?_Insert@?$list@V?$shared_ptr@VDevice@LibUSB@@@tr1@std@@V?$allocator@V?$shared_ptr@VDevice@LibUSB@@@tr1@std@@@3@@std@@QAEXV?$_List_const_iterator@V?$_List_val@V?$shared_ptr@VDevice@LibUSB@@@tr1@std@@V?$allocator@V?$shared_ptr@VDevice@LibUSB@@@tr1@std@@@3@@std@@@2@ABV?$shared_ptr@VDevice@LibUSB@@@tr1@2@@Z
	mov	eax, DWORD PTR fs:0
	push	eax
	sub	esp, 228				; 000000e4H
	push	ebx
	push	esi
	push	edi
	push	ecx
	lea	edi, DWORD PTR [ebp-240]
	mov	ecx, 57					; 00000039H
	mov	eax, -858993460				; ccccccccH
	rep stosd
	pop	ecx
	mov	eax, DWORD PTR ___security_cookie
	xor	eax, ebp
	push	eax
	lea	eax, DWORD PTR __$EHRec$[ebp]
	mov	DWORD PTR fs:0, eax
	mov	DWORD PTR _this$[ebp], ecx
	mov	DWORD PTR __$EHRec$[ebp+8], 0
; Line 969
	lea	ecx, DWORD PTR __Where$[ebp]
	call	?_Getcont@_Iterator_base12@std@@QBEPBU_Container_base12@2@XZ ; std::_Iterator_base12::_Getcont
	cmp	eax, DWORD PTR _this$[ebp]
	je	SHORT $LN1@Insert
; Line 970
	mov	esi, esp
	push	970					; 000003caH
	push	OFFSET ??_C@_1II@BMCPAJCJ@?$AAc?$AA?3?$AA?2?$AAp?$AAr?$AAo?$AAg?$AAr?$AAa?$AAm?$AA?5?$AAf?$AAi?$AAl?$AAe?$AAs?$AA?5?$AA?$CI?$AAx?$AA8?$AA6?$AA?$CJ?$AA?2?$AAm?$AAi?$AAc?$AAr?$AAo?$AAs?$AAo?$AAf?$AAt@
	push	OFFSET ??_C@_1EG@BPNHNPIG@?$AAl?$AAi?$AAs?$AAt?$AA?5?$AAi?$AAn?$AAs?$AAe?$AAr?$AAt?$AA?5?$AAi?$AAt?$AAe?$AAr?$AAa?$AAt?$AAo?$AAr?$AA?5?$AAo?$AAu?$AAt?$AAs?$AAi?$AAd?$AAe?$AA?5?$AAr?$AAa?$AAn@
	call	DWORD PTR __imp_?_Debug_message@std@@YAXPB_W0I@Z
	add	esp, 12					; 0000000cH
	cmp	esi, esp
	call	__RTC_CheckEsp
$LN1@Insert:
; Line 973
	lea	ecx, DWORD PTR __Where$[ebp]
	call	?_Mynode@?$_List_unchecked_const_iterator@V?$_List_val@V?$shared_ptr@VDevice@LibUSB@@@tr1@std@@V?$allocator@V?$shared_ptr@VDevice@LibUSB@@@tr1@std@@@3@@std@@U_Iterator_base12@2@@std@@QBEPAU_Node@?$_List_nod@V?$shared_ptr@VDevice@LibUSB@@@tr1@std@@V?$allocator@V?$shared_ptr@VDevice@LibUSB@@@tr1@std@@@3@@2@XZ ; std::_List_unchecked_const_iterator<std::_List_val<std::tr1::shared_ptr<LibUSB::Device>,std::allocator<std::tr1::shared_ptr<LibUSB::Device> > >,std::_Iterator_base12>::_Mynode
	mov	DWORD PTR __Pnode$[ebp], eax
; Line 975
	mov	eax, DWORD PTR __Val$[ebp]
	push	eax
	mov	ecx, DWORD PTR __Pnode$[ebp]
	push	ecx
	call	?_Prevnode@?$_List_val@V?$shared_ptr@VDevice@LibUSB@@@tr1@std@@V?$allocator@V?$shared_ptr@VDevice@LibUSB@@@tr1@std@@@3@@std@@SAAAPAU_Node@?$_List_nod@V?$shared_ptr@VDevice@LibUSB@@@tr1@std@@V?$allocator@V?$shared_ptr@VDevice@LibUSB@@@tr1@std@@@3@@2@PAU342@@Z ; std::_List_val<std::tr1::shared_ptr<LibUSB::Device>,std::allocator<std::tr1::shared_ptr<LibUSB::Device> > >::_Prevnode
	add	esp, 4
	mov	edx, DWORD PTR [eax]
	push	edx
	mov	eax, DWORD PTR __Pnode$[ebp]
	push	eax
	mov	ecx, DWORD PTR _this$[ebp]
	call	?_Buynode@?$_List_val@V?$shared_ptr@VDevice@LibUSB@@@tr1@std@@V?$allocator@V?$shared_ptr@VDevice@LibUSB@@@tr1@std@@@3@@std@@QAEPAU_Node@?$_List_nod@V?$shared_ptr@VDevice@LibUSB@@@tr1@std@@V?$allocator@V?$shared_ptr@VDevice@LibUSB@@@tr1@std@@@3@@2@PAU342@0ABV?$shared_ptr@VDevice@LibUSB@@@tr1@2@@Z ; std::_List_val<std::tr1::shared_ptr<LibUSB::Device>,std::allocator<std::tr1::shared_ptr<LibUSB::Device> > >::_Buynode
	mov	DWORD PTR __Newnode$[ebp], eax
; Line 976
	push	1
	mov	ecx, DWORD PTR _this$[ebp]
	call	?_Incsize@?$list@V?$shared_ptr@VDevice@LibUSB@@@tr1@std@@V?$allocator@V?$shared_ptr@VDevice@LibUSB@@@tr1@std@@@3@@std@@QAEXI@Z ; std::list<std::tr1::shared_ptr<LibUSB::Device>,std::allocator<std::tr1::shared_ptr<LibUSB::Device> > >::_Incsize
; Line 977
	mov	eax, DWORD PTR __Pnode$[ebp]
	push	eax
	call	?_Prevnode@?$_List_val@V?$shared_ptr@VDevice@LibUSB@@@tr1@std@@V?$allocator@V?$shared_ptr@VDevice@LibUSB@@@tr1@std@@@3@@std@@SAAAPAU_Node@?$_List_nod@V?$shared_ptr@VDevice@LibUSB@@@tr1@std@@V?$allocator@V?$shared_ptr@VDevice@LibUSB@@@tr1@std@@@3@@2@PAU342@@Z ; std::_List_val<std::tr1::shared_ptr<LibUSB::Device>,std::allocator<std::tr1::shared_ptr<LibUSB::Device> > >::_Prevnode
	add	esp, 4
	mov	ecx, DWORD PTR __Newnode$[ebp]
	mov	DWORD PTR [eax], ecx
; Line 978
	mov	eax, DWORD PTR __Newnode$[ebp]
	push	eax
	call	?_Prevnode@?$_List_val@V?$shared_ptr@VDevice@LibUSB@@@tr1@std@@V?$allocator@V?$shared_ptr@VDevice@LibUSB@@@tr1@std@@@3@@std@@SAAAPAU_Node@?$_List_nod@V?$shared_ptr@VDevice@LibUSB@@@tr1@std@@V?$allocator@V?$shared_ptr@VDevice@LibUSB@@@tr1@std@@@3@@2@PAU342@@Z ; std::_List_val<std::tr1::shared_ptr<LibUSB::Device>,std::allocator<std::tr1::shared_ptr<LibUSB::Device> > >::_Prevnode
	add	esp, 4
	mov	ecx, DWORD PTR [eax]
	push	ecx
	call	?_Nextnode@?$_List_val@V?$shared_ptr@VDevice@LibUSB@@@tr1@std@@V?$allocator@V?$shared_ptr@VDevice@LibUSB@@@tr1@std@@@3@@std@@SAAAPAU_Node@?$_List_nod@V?$shared_ptr@VDevice@LibUSB@@@tr1@std@@V?$allocator@V?$shared_ptr@VDevice@LibUSB@@@tr1@std@@@3@@2@PAU342@@Z ; std::_List_val<std::tr1::shared_ptr<LibUSB::Device>,std::allocator<std::tr1::shared_ptr<LibUSB::Device> > >::_Nextnode
	add	esp, 4
	mov	edx, DWORD PTR __Newnode$[ebp]
	mov	DWORD PTR [eax], edx
; Line 979
	mov	DWORD PTR __$EHRec$[ebp+8], -1
	lea	ecx, DWORD PTR __Where$[ebp]
	call	??1?$_List_const_iterator@V?$_List_val@V?$shared_ptr@VDevice@LibUSB@@@tr1@std@@V?$allocator@V?$shared_ptr@VDevice@LibUSB@@@tr1@std@@@3@@std@@@std@@QAE@XZ
	mov	ecx, DWORD PTR __$EHRec$[ebp]
	mov	DWORD PTR fs:0, ecx
	pop	ecx
	pop	edi
	pop	esi
	pop	ebx
	add	esp, 240				; 000000f0H
	cmp	ebp, esp
	call	__RTC_CheckEsp
	mov	esp, ebp
	pop	ebp
	ret	16					; 00000010H
_TEXT	ENDS
;	COMDAT text$x
text$x	SEGMENT
__unwindfunclet$?_Insert@?$list@V?$shared_ptr@VDevice@LibUSB@@@tr1@std@@V?$allocator@V?$shared_ptr@VDevice@LibUSB@@@tr1@std@@@3@@std@@QAEXV?$_List_const_iterator@V?$_List_val@V?$shared_ptr@VDevice@LibUSB@@@tr1@std@@V?$allocator@V?$shared_ptr@VDevice@LibUSB@@@tr1@std@@@3@@std@@@2@ABV?$shared_ptr@VDevice@LibUSB@@@tr1@2@@Z$0:
	lea	ecx, DWORD PTR __Where$[ebp]
	jmp	??1?$_List_const_iterator@V?$_List_val@V?$shared_ptr@VDevice@LibUSB@@@tr1@std@@V?$allocator@V?$shared_ptr@VDevice@LibUSB@@@tr1@std@@@3@@std@@@std@@QAE@XZ
__ehhandler$?_Insert@?$list@V?$shared_ptr@VDevice@LibUSB@@@tr1@std@@V?$allocator@V?$shared_ptr@VDevice@LibUSB@@@tr1@std@@@3@@std@@QAEXV?$_List_const_iterator@V?$_List_val@V?$shared_ptr@VDevice@LibUSB@@@tr1@std@@V?$allocator@V?$shared_ptr@VDevice@LibUSB@@@tr1@std@@@3@@std@@@2@ABV?$shared_ptr@VDevice@LibUSB@@@tr1@2@@Z:
	mov	edx, DWORD PTR [esp+8]
	lea	eax, DWORD PTR [edx+12]
	mov	ecx, DWORD PTR [edx-244]
	xor	ecx, eax
	call	@__security_check_cookie@4
	mov	eax, OFFSET __ehfuncinfo$?_Insert@?$list@V?$shared_ptr@VDevice@LibUSB@@@tr1@std@@V?$allocator@V?$shared_ptr@VDevice@LibUSB@@@tr1@std@@@3@@std@@QAEXV?$_List_const_iterator@V?$_List_val@V?$shared_ptr@VDevice@LibUSB@@@tr1@std@@V?$allocator@V?$shared_ptr@VDevice@LibUSB@@@tr1@std@@@3@@std@@@2@ABV?$shared_ptr@VDevice@LibUSB@@@tr1@2@@Z
	jmp	___CxxFrameHandler3
text$x	ENDS
?_Insert@?$list@V?$shared_ptr@VDevice@LibUSB@@@tr1@std@@V?$allocator@V?$shared_ptr@VDevice@LibUSB@@@tr1@std@@@3@@std@@QAEXV?$_List_const_iterator@V?$_List_val@V?$shared_ptr@VDevice@LibUSB@@@tr1@std@@V?$allocator@V?$shared_ptr@VDevice@LibUSB@@@tr1@std@@@3@@std@@@2@ABV?$shared_ptr@VDevice@LibUSB@@@tr1@2@@Z ENDP ; std::list<std::tr1::shared_ptr<LibUSB::Device>,std::allocator<std::tr1::shared_ptr<LibUSB::Device> > >::_Insert
; Function compile flags: /Odtp /RTCsu /ZI
;	COMDAT ?_Getcont@_Iterator_base12@std@@QBEPBU_Container_base12@2@XZ
_TEXT	SEGMENT
tv66 = -208						; size = 4
_this$ = -8						; size = 4
?_Getcont@_Iterator_base12@std@@QBEPBU_Container_base12@2@XZ PROC ; std::_Iterator_base12::_Getcont, COMDAT
; _this$ = ecx
; File c:\program files (x86)\microsoft visual studio 10.0\vc\include\xutility
; Line 162
	push	ebp
	mov	ebp, esp
	sub	esp, 208				; 000000d0H
	push	ebx
	push	esi
	push	edi
	push	ecx
	lea	edi, DWORD PTR [ebp-208]
	mov	ecx, 52					; 00000034H
	mov	eax, -858993460				; ccccccccH
	rep stosd
	pop	ecx
	mov	DWORD PTR _this$[ebp], ecx
; Line 163
	mov	eax, DWORD PTR _this$[ebp]
	cmp	DWORD PTR [eax], 0
	jne	SHORT $LN3@Getcont
	mov	DWORD PTR tv66[ebp], 0
	jmp	SHORT $LN4@Getcont
$LN3@Getcont:
	mov	ecx, DWORD PTR _this$[ebp]
	mov	edx, DWORD PTR [ecx]
	mov	eax, DWORD PTR [edx]
	mov	DWORD PTR tv66[ebp], eax
$LN4@Getcont:
	mov	eax, DWORD PTR tv66[ebp]
; Line 164
	pop	edi
	pop	esi
	pop	ebx
	mov	esp, ebp
	pop	ebp
	ret	0
?_Getcont@_Iterator_base12@std@@QBEPBU_Container_base12@2@XZ ENDP ; std::_Iterator_base12::_Getcont
; Function compile flags: /Odtp /RTCsu /ZI
_TEXT	ENDS
;	COMDAT ?_Tidy@?$list@V?$shared_ptr@VDevice@LibUSB@@@tr1@std@@V?$allocator@V?$shared_ptr@VDevice@LibUSB@@@tr1@std@@@3@@std@@QAEXXZ
_TEXT	SEGMENT
_this$ = -8						; size = 4
?_Tidy@?$list@V?$shared_ptr@VDevice@LibUSB@@@tr1@std@@V?$allocator@V?$shared_ptr@VDevice@LibUSB@@@tr1@std@@@3@@std@@QAEXXZ PROC ; std::list<std::tr1::shared_ptr<LibUSB::Device>,std::allocator<std::tr1::shared_ptr<LibUSB::Device> > >::_Tidy, COMDAT
; _this$ = ecx
; File c:\program files (x86)\microsoft visual studio 10.0\vc\include\list
; Line 1496
	push	ebp
	mov	ebp, esp
	sub	esp, 204				; 000000ccH
	push	ebx
	push	esi
	push	edi
	push	ecx
	lea	edi, DWORD PTR [ebp-204]
	mov	ecx, 51					; 00000033H
	mov	eax, -858993460				; ccccccccH
	rep stosd
	pop	ecx
	mov	DWORD PTR _this$[ebp], ecx
; Line 1497
	mov	ecx, DWORD PTR _this$[ebp]
	call	?clear@?$list@V?$shared_ptr@VDevice@LibUSB@@@tr1@std@@V?$allocator@V?$shared_ptr@VDevice@LibUSB@@@tr1@std@@@3@@std@@QAEXXZ ; std::list<std::tr1::shared_ptr<LibUSB::Device>,std::allocator<std::tr1::shared_ptr<LibUSB::Device> > >::clear
; Line 1498
	pop	edi
	pop	esi
	pop	ebx
	add	esp, 204				; 000000ccH
	cmp	ebp, esp
	call	__RTC_CheckEsp
	mov	esp, ebp
	pop	ebp
	ret	0
?_Tidy@?$list@V?$shared_ptr@VDevice@LibUSB@@@tr1@std@@V?$allocator@V?$shared_ptr@VDevice@LibUSB@@@tr1@std@@@3@@std@@QAEXXZ ENDP ; std::list<std::tr1::shared_ptr<LibUSB::Device>,std::allocator<std::tr1::shared_ptr<LibUSB::Device> > >::_Tidy
_TEXT	ENDS
PUBLIC	??1?$_List_nod@V?$shared_ptr@VDevice@LibUSB@@@tr1@std@@V?$allocator@V?$shared_ptr@VDevice@LibUSB@@@tr1@std@@@3@@std@@QAE@XZ ; std::_List_nod<std::tr1::shared_ptr<LibUSB::Device>,std::allocator<std::tr1::shared_ptr<LibUSB::Device> > >::~_List_nod<std::tr1::shared_ptr<LibUSB::Device>,std::allocator<std::tr1::shared_ptr<LibUSB::Device> > >
PUBLIC	?allocate@?$allocator@U_Node@?$_List_nod@V?$shared_ptr@VDevice@LibUSB@@@tr1@std@@V?$allocator@V?$shared_ptr@VDevice@LibUSB@@@tr1@std@@@3@@std@@@std@@QAEPAU_Node@?$_List_nod@V?$shared_ptr@VDevice@LibUSB@@@tr1@std@@V?$allocator@V?$shared_ptr@VDevice@LibUSB@@@tr1@std@@@3@@2@I@Z ; std::allocator<std::_List_nod<std::tr1::shared_ptr<LibUSB::Device>,std::allocator<std::tr1::shared_ptr<LibUSB::Device> > >::_Node>::allocate
